
/Users/yangwenhaomac/Desktop/Eurorack/2HP-Pico/Pico-Eurorack/Bootloader/build/Pico_Firmware.elf:     file format elf32-littlearm

Sections:
Idx Name          Size      VMA       LMA       File off  Algn
  0 .text         00002f44  10000000  10000000  00001000  2**3
                  CONTENTS, ALLOC, LOAD, READONLY, CODE
  1 .rodata       00000180  10002f44  10002f44  00003f44  2**2
                  CONTENTS, ALLOC, LOAD, READONLY, DATA
  2 .binary_info  0000001c  100030c4  100030c4  000040c4  2**2
                  CONTENTS, ALLOC, LOAD, READONLY, DATA
  3 .ram_vector_table 00000110  20000000  20000000  00006000  2**2
                  ALLOC
  4 .uninitialized_data 00000000  20000110  20000110  000054c8  2**0
                  CONTENTS
  5 .data         000003d4  20000110  100030e0  00004110  2**3
                  CONTENTS, ALLOC, LOAD, READONLY, CODE
  6 .tdata        00000000  200004e4  200004e4  000054c8  2**0
                  CONTENTS, ALLOC, LOAD, DATA, THREAD_LOCAL
  7 .tbss         00000000  200004e4  200004e4  00000000  2**0
                  ALLOC, THREAD_LOCAL
  8 .bss          00000330  200004e8  100034b4  000054e8  2**3
                  ALLOC
  9 .heap         00000800  20000818  100034b4  00005818  2**2
                  ALLOC, READONLY
 10 .scratch_x    00000000  20080000  20080000  000054c8  2**0
                  CONTENTS
 11 .scratch_y    00000000  20081000  20081000  000054c8  2**0
                  CONTENTS
 12 .stack1_dummy 00000800  20080000  20080000  00006000  2**2
                  ALLOC
 13 .stack_dummy  00000800  20081000  20081000  00006000  2**5
                  ALLOC, READONLY
 14 .flash_end    00000014  100034b4  100034b4  000054b4  2**2
                  CONTENTS, ALLOC, LOAD, READONLY, DATA
 15 .ARM.attributes 00000034  00000000  00000000  000054c8  2**0
                  CONTENTS, READONLY
 16 .comment      00000012  00000000  00000000  000054fc  2**0
                  CONTENTS, READONLY
 17 .debug_info   0002cf20  00000000  00000000  0000550e  2**0
                  CONTENTS, READONLY, DEBUGGING, OCTETS
 18 .debug_abbrev 00007545  00000000  00000000  0003242e  2**0
                  CONTENTS, READONLY, DEBUGGING, OCTETS
 19 .debug_loclists 00016dc8  00000000  00000000  00039973  2**0
                  CONTENTS, READONLY, DEBUGGING, OCTETS
 20 .debug_aranges 00000e80  00000000  00000000  00050740  2**3
                  CONTENTS, READONLY, DEBUGGING, OCTETS
 21 .debug_rnglists 0000461c  00000000  00000000  000515c0  2**0
                  CONTENTS, READONLY, DEBUGGING, OCTETS
 22 .debug_line   000210f4  00000000  00000000  00055bdc  2**0
                  CONTENTS, READONLY, DEBUGGING, OCTETS
 23 .debug_str    00007c18  00000000  00000000  00076cd0  2**0
                  CONTENTS, READONLY, DEBUGGING, OCTETS
 24 .debug_frame  000028b8  00000000  00000000  0007e8e8  2**2
                  CONTENTS, READONLY, DEBUGGING, OCTETS
 25 .debug_line_str 000000c4  00000000  00000000  000811a0  2**0
                  CONTENTS, READONLY, DEBUGGING, OCTETS

/Users/yangwenhaomac/Desktop/Eurorack/2HP-Pico/Pico-Eurorack/Bootloader/build/Pico_Firmware.elf:     file format elf32-littlearm


Disassembly of section .text:

10000000 <__VECTOR_TABLE>:
10000000:	20082000 	.word	0x20082000
10000004:	1000015d 	.word	0x1000015d
10000008:	1000011b 	.word	0x1000011b
1000000c:	1000011d 	.word	0x1000011d
10000010:	10000111 	.word	0x10000111
10000014:	10000111 	.word	0x10000111
10000018:	10000111 	.word	0x10000111
1000001c:	10000111 	.word	0x10000111
10000020:	10000119 	.word	0x10000119
10000024:	10000119 	.word	0x10000119
10000028:	10000119 	.word	0x10000119
1000002c:	1000011f 	.word	0x1000011f
10000030:	10000111 	.word	0x10000111
10000034:	10000119 	.word	0x10000119
10000038:	10000121 	.word	0x10000121
1000003c:	10000123 	.word	0x10000123
10000040:	10000111 	.word	0x10000111
10000044:	10000111 	.word	0x10000111
10000048:	10000111 	.word	0x10000111
1000004c:	10000111 	.word	0x10000111
10000050:	10000111 	.word	0x10000111
10000054:	10000111 	.word	0x10000111
10000058:	10000111 	.word	0x10000111
1000005c:	10000111 	.word	0x10000111
10000060:	10000111 	.word	0x10000111
10000064:	10000111 	.word	0x10000111
10000068:	10000111 	.word	0x10000111
1000006c:	10000111 	.word	0x10000111
10000070:	10000111 	.word	0x10000111
10000074:	10000111 	.word	0x10000111
10000078:	10000111 	.word	0x10000111
1000007c:	10000111 	.word	0x10000111
10000080:	10000111 	.word	0x10000111
10000084:	10000111 	.word	0x10000111
10000088:	10000111 	.word	0x10000111
1000008c:	10000111 	.word	0x10000111
10000090:	10000111 	.word	0x10000111
10000094:	10000111 	.word	0x10000111
10000098:	10000111 	.word	0x10000111
1000009c:	10000111 	.word	0x10000111
100000a0:	10000111 	.word	0x10000111
100000a4:	10000111 	.word	0x10000111
100000a8:	10000111 	.word	0x10000111
100000ac:	10000111 	.word	0x10000111
100000b0:	10000111 	.word	0x10000111
100000b4:	10000111 	.word	0x10000111
100000b8:	10000111 	.word	0x10000111
100000bc:	10000111 	.word	0x10000111
100000c0:	10000111 	.word	0x10000111
100000c4:	10000111 	.word	0x10000111
100000c8:	10000111 	.word	0x10000111
100000cc:	10000111 	.word	0x10000111
100000d0:	10000111 	.word	0x10000111
100000d4:	10000111 	.word	0x10000111
100000d8:	10000111 	.word	0x10000111
100000dc:	10000111 	.word	0x10000111
100000e0:	10000111 	.word	0x10000111
100000e4:	10000111 	.word	0x10000111
100000e8:	10000111 	.word	0x10000111
100000ec:	10000111 	.word	0x10000111
100000f0:	10000111 	.word	0x10000111
100000f4:	10000111 	.word	0x10000111
100000f8:	10000111 	.word	0x10000111
100000fc:	10000111 	.word	0x10000111
10000100:	10000111 	.word	0x10000111
10000104:	10000111 	.word	0x10000111
10000108:	10000111 	.word	0x10000111
1000010c:	10000111 	.word	0x10000111

10000110 <__unhandled_user_irq>:
10000110:	f3ef 8005 	mrs	r0, IPSR
10000114:	3810      	subs	r0, #16

10000116 <unhandled_user_irq_num_in_r0>:
10000116:	be00      	bkpt	0x0000

10000118 <isr_invalid>:
10000118:	be00      	bkpt	0x0000

1000011a <isr_nmi>:
1000011a:	be00      	bkpt	0x0000

1000011c <isr_hardfault>:
1000011c:	be00      	bkpt	0x0000

1000011e <isr_svcall>:
1000011e:	be00      	bkpt	0x0000

10000120 <isr_pendsv>:
10000120:	be00      	bkpt	0x0000

10000122 <isr_systick>:
10000122:	be00      	bkpt	0x0000

10000124 <__default_isrs_end>:
10000124:	7188ebf2 	.word	0x7188ebf2
10000128:	100030c4 	.word	0x100030c4
1000012c:	100030e0 	.word	0x100030e0
10000130:	100001a0 	.word	0x100001a0
10000134:	e71aa390 	.word	0xe71aa390

10000138 <__binary_info_header_end>:
10000138:	ffffded3 	.word	0xffffded3
1000013c:	10210142 	.word	0x10210142
10000140:	000001ff 	.word	0x000001ff
10000144:	0000337c 	.word	0x0000337c
10000148:	ab123579 	.word	0xab123579

1000014c <_entry_point>:
1000014c:	f04f 0000 	mov.w	r0, #0

10000150 <_enter_vtable_in_r0>:
10000150:	491e      	ldr	r1, [pc, #120]	@ (100001cc <data_cpy_table+0x2c>)
10000152:	6008      	str	r0, [r1, #0]
10000154:	c806      	ldmia	r0!, {r1, r2}
10000156:	f381 8808 	msr	MSP, r1
1000015a:	4710      	bx	r2

1000015c <_reset_handler>:
1000015c:	f04f 4050 	mov.w	r0, #3489660928	@ 0xd0000000
10000160:	6800      	ldr	r0, [r0, #0]
10000162:	b110      	cbz	r0, 1000016a <hold_non_core0_in_bootrom+0x6>

10000164 <hold_non_core0_in_bootrom>:
10000164:	f04f 0000 	mov.w	r0, #0
10000168:	e7f2      	b.n	10000150 <_enter_vtable_in_r0>
1000016a:	a40d      	add	r4, pc, #52	@ (adr r4, 100001a0 <data_cpy_table>)
1000016c:	cc0e      	ldmia	r4!, {r1, r2, r3}
1000016e:	2900      	cmp	r1, #0
10000170:	d002      	beq.n	10000178 <hold_non_core0_in_bootrom+0x14>
10000172:	f000 f812 	bl	1000019a <data_cpy>
10000176:	e7f9      	b.n	1000016c <hold_non_core0_in_bootrom+0x8>
10000178:	4915      	ldr	r1, [pc, #84]	@ (100001d0 <data_cpy_table+0x30>)
1000017a:	4a16      	ldr	r2, [pc, #88]	@ (100001d4 <data_cpy_table+0x34>)
1000017c:	2000      	movs	r0, #0
1000017e:	e000      	b.n	10000182 <bss_fill_test>

10000180 <bss_fill_loop>:
10000180:	c101      	stmia	r1!, {r0}

10000182 <bss_fill_test>:
10000182:	4291      	cmp	r1, r2
10000184:	d1fc      	bne.n	10000180 <bss_fill_loop>

10000186 <platform_entry>:
10000186:	4914      	ldr	r1, [pc, #80]	@ (100001d8 <data_cpy_table+0x38>)
10000188:	4788      	blx	r1
1000018a:	4914      	ldr	r1, [pc, #80]	@ (100001dc <data_cpy_table+0x3c>)
1000018c:	4788      	blx	r1
1000018e:	4914      	ldr	r1, [pc, #80]	@ (100001e0 <data_cpy_table+0x40>)
10000190:	4788      	blx	r1
10000192:	be00      	bkpt	0x0000
10000194:	e7fd      	b.n	10000192 <platform_entry+0xc>

10000196 <data_cpy_loop>:
10000196:	c901      	ldmia	r1!, {r0}
10000198:	c201      	stmia	r2!, {r0}

1000019a <data_cpy>:
1000019a:	429a      	cmp	r2, r3
1000019c:	d3fb      	bcc.n	10000196 <data_cpy_loop>
1000019e:	4770      	bx	lr

100001a0 <data_cpy_table>:
100001a0:	100030e0 	.word	0x100030e0
100001a4:	20000110 	.word	0x20000110
100001a8:	200004e4 	.word	0x200004e4
100001ac:	100034b4 	.word	0x100034b4
100001b0:	20080000 	.word	0x20080000
100001b4:	20080000 	.word	0x20080000
100001b8:	100034b4 	.word	0x100034b4
100001bc:	20081000 	.word	0x20081000
100001c0:	20081000 	.word	0x20081000
100001c4:	00000000 	.word	0x00000000
100001c8:	4770      	bx	lr
100001ca:	0000      	.short	0x0000
100001cc:	e000ed08 	.word	0xe000ed08
100001d0:	200004e4 	.word	0x200004e4
100001d4:	20000818 	.word	0x20000818
100001d8:	100027d9 	.word	0x100027d9
100001dc:	1000103d 	.word	0x1000103d
100001e0:	100027d1 	.word	0x100027d1

100001e4 <_init>:
100001e4:	b5f8      	push	{r3, r4, r5, r6, r7, lr}
100001e6:	46c0      	nop			@ (mov r8, r8)

100001e8 <deregister_tm_clones>:
100001e8:	4804      	ldr	r0, [pc, #16]	@ (100001fc <deregister_tm_clones+0x14>)
100001ea:	4b05      	ldr	r3, [pc, #20]	@ (10000200 <deregister_tm_clones+0x18>)
100001ec:	b510      	push	{r4, lr}
100001ee:	4283      	cmp	r3, r0
100001f0:	d003      	beq.n	100001fa <deregister_tm_clones+0x12>
100001f2:	4b04      	ldr	r3, [pc, #16]	@ (10000204 <deregister_tm_clones+0x1c>)
100001f4:	2b00      	cmp	r3, #0
100001f6:	d000      	beq.n	100001fa <deregister_tm_clones+0x12>
100001f8:	4798      	blx	r3
100001fa:	bd10      	pop	{r4, pc}
100001fc:	200004e4 	.word	0x200004e4
10000200:	200004e4 	.word	0x200004e4
10000204:	00000000 	.word	0x00000000

10000208 <register_tm_clones>:
10000208:	4806      	ldr	r0, [pc, #24]	@ (10000224 <register_tm_clones+0x1c>)
1000020a:	4907      	ldr	r1, [pc, #28]	@ (10000228 <register_tm_clones+0x20>)
1000020c:	1a09      	subs	r1, r1, r0
1000020e:	108b      	asrs	r3, r1, #2
10000210:	0fc9      	lsrs	r1, r1, #31
10000212:	18c9      	adds	r1, r1, r3
10000214:	b510      	push	{r4, lr}
10000216:	1049      	asrs	r1, r1, #1
10000218:	d003      	beq.n	10000222 <register_tm_clones+0x1a>
1000021a:	4b04      	ldr	r3, [pc, #16]	@ (1000022c <register_tm_clones+0x24>)
1000021c:	2b00      	cmp	r3, #0
1000021e:	d000      	beq.n	10000222 <register_tm_clones+0x1a>
10000220:	4798      	blx	r3
10000222:	bd10      	pop	{r4, pc}
10000224:	200004e4 	.word	0x200004e4
10000228:	200004e4 	.word	0x200004e4
1000022c:	00000000 	.word	0x00000000

10000230 <__do_global_dtors_aux>:
10000230:	b510      	push	{r4, lr}
10000232:	4c07      	ldr	r4, [pc, #28]	@ (10000250 <__do_global_dtors_aux+0x20>)
10000234:	7823      	ldrb	r3, [r4, #0]
10000236:	2b00      	cmp	r3, #0
10000238:	d109      	bne.n	1000024e <__do_global_dtors_aux+0x1e>
1000023a:	f7ff ffd5 	bl	100001e8 <deregister_tm_clones>
1000023e:	4b05      	ldr	r3, [pc, #20]	@ (10000254 <__do_global_dtors_aux+0x24>)
10000240:	2b00      	cmp	r3, #0
10000242:	d002      	beq.n	1000024a <__do_global_dtors_aux+0x1a>
10000244:	4804      	ldr	r0, [pc, #16]	@ (10000258 <__do_global_dtors_aux+0x28>)
10000246:	f3af 8000 	nop.w
1000024a:	2301      	movs	r3, #1
1000024c:	7023      	strb	r3, [r4, #0]
1000024e:	bd10      	pop	{r4, pc}
10000250:	20000668 	.word	0x20000668
10000254:	00000000 	.word	0x00000000
10000258:	10002f44 	.word	0x10002f44

1000025c <frame_dummy>:
1000025c:	4b05      	ldr	r3, [pc, #20]	@ (10000274 <frame_dummy+0x18>)
1000025e:	b510      	push	{r4, lr}
10000260:	2b00      	cmp	r3, #0
10000262:	d003      	beq.n	1000026c <frame_dummy+0x10>
10000264:	4904      	ldr	r1, [pc, #16]	@ (10000278 <frame_dummy+0x1c>)
10000266:	4805      	ldr	r0, [pc, #20]	@ (1000027c <frame_dummy+0x20>)
10000268:	f3af 8000 	nop.w
1000026c:	f7ff ffcc 	bl	10000208 <register_tm_clones>
10000270:	bd10      	pop	{r4, pc}
10000272:	46c0      	nop			@ (mov r8, r8)
10000274:	00000000 	.word	0x00000000
10000278:	2000066c 	.word	0x2000066c
1000027c:	10002f44 	.word	0x10002f44

10000280 <flash_write_sector.constprop.0>:
10000280:	b530      	push	{r4, r5, lr}
10000282:	460d      	mov	r5, r1
10000284:	f5ad 5d80 	sub.w	sp, sp, #4096	@ 0x1000
10000288:	b081      	sub	sp, #4
1000028a:	4604      	mov	r4, r0
1000028c:	f44f 5280 	mov.w	r2, #4096	@ 0x1000
10000290:	21ff      	movs	r1, #255	@ 0xff
10000292:	4668      	mov	r0, sp
10000294:	f002 fd54 	bl	10002d40 <memset>
10000298:	22d8      	movs	r2, #216	@ 0xd8
1000029a:	4629      	mov	r1, r5
1000029c:	4668      	mov	r0, sp
1000029e:	f002 fdc7 	bl	10002e30 <memcpy>
100002a2:	f3ef 8510 	mrs	r5, PRIMASK
100002a6:	b672      	cpsid	i
100002a8:	f002 fbda 	bl	10002a60 <multicore_reset_core1>
100002ac:	4620      	mov	r0, r4
100002ae:	f44f 5180 	mov.w	r1, #4096	@ 0x1000
100002b2:	f002 fe1d 	bl	10002ef0 <__flash_range_erase_veneer>
100002b6:	f44f 5280 	mov.w	r2, #4096	@ 0x1000
100002ba:	4669      	mov	r1, sp
100002bc:	4620      	mov	r0, r4
100002be:	f002 fe0f 	bl	10002ee0 <__flash_range_program_veneer>
100002c2:	f385 8810 	msr	PRIMASK, r5
100002c6:	f50d 5d80 	add.w	sp, sp, #4096	@ 0x1000
100002ca:	b001      	add	sp, #4
100002cc:	bd30      	pop	{r4, r5, pc}
100002ce:	bf00      	nop

100002d0 <pico_boot_config_defaults>:
100002d0:	b570      	push	{r4, r5, r6, lr}
100002d2:	4604      	mov	r4, r0
100002d4:	4d31      	ldr	r5, [pc, #196]	@ (1000039c <pico_boot_config_defaults+0xcc>)
100002d6:	22cc      	movs	r2, #204	@ 0xcc
100002d8:	2100      	movs	r1, #0
100002da:	300c      	adds	r0, #12
100002dc:	f002 fd30 	bl	10002d40 <memset>
100002e0:	6025      	str	r5, [r4, #0]
100002e2:	f44f 2540 	mov.w	r5, #786432	@ 0xc0000
100002e6:	492e      	ldr	r1, [pc, #184]	@ (100003a0 <pico_boot_config_defaults+0xd0>)
100002e8:	64a5      	str	r5, [r4, #72]	@ 0x48
100002ea:	61e1      	str	r1, [r4, #28]
100002ec:	492d      	ldr	r1, [pc, #180]	@ (100003a4 <pico_boot_config_defaults+0xd4>)
100002ee:	f44f 2580 	mov.w	r5, #262144	@ 0x40000
100002f2:	6221      	str	r1, [r4, #32]
100002f4:	6261      	str	r1, [r4, #36]	@ 0x24
100002f6:	f44f 2100 	mov.w	r1, #524288	@ 0x80000
100002fa:	e9c4 510d 	strd	r5, r1, [r4, #52]	@ 0x34
100002fe:	f44f 15a0 	mov.w	r5, #1310720	@ 0x140000
10000302:	65e5      	str	r5, [r4, #92]	@ 0x5c
10000304:	2503      	movs	r5, #3
10000306:	66a5      	str	r5, [r4, #104]	@ 0x68
10000308:	f44f 15e0 	mov.w	r5, #1835008	@ 0x1c0000
1000030c:	6725      	str	r5, [r4, #112]	@ 0x70
1000030e:	2504      	movs	r5, #4
10000310:	2301      	movs	r3, #1
10000312:	67e5      	str	r5, [r4, #124]	@ 0x7c
10000314:	f44f 1510 	mov.w	r5, #2359296	@ 0x240000
10000318:	2602      	movs	r6, #2
1000031a:	4a23      	ldr	r2, [pc, #140]	@ (100003a8 <pico_boot_config_defaults+0xd8>)
1000031c:	2006      	movs	r0, #6
1000031e:	6162      	str	r2, [r4, #20]
10000320:	61a2      	str	r2, [r4, #24]
10000322:	60a3      	str	r3, [r4, #8]
10000324:	f44f 5240 	mov.w	r2, #12288	@ 0x3000
10000328:	6423      	str	r3, [r4, #64]	@ 0x40
1000032a:	2305      	movs	r3, #5
1000032c:	f8c4 5084 	str.w	r5, [r4, #132]	@ 0x84
10000330:	f44f 1530 	mov.w	r5, #2883584	@ 0x2c0000
10000334:	6566      	str	r6, [r4, #84]	@ 0x54
10000336:	4e1d      	ldr	r6, [pc, #116]	@ (100003ac <pico_boot_config_defaults+0xdc>)
10000338:	7360      	strb	r0, [r4, #13]
1000033a:	6066      	str	r6, [r4, #4]
1000033c:	4e1c      	ldr	r6, [pc, #112]	@ (100003b0 <pico_boot_config_defaults+0xe0>)
1000033e:	63e3      	str	r3, [r4, #60]	@ 0x3c
10000340:	6462      	str	r2, [r4, #68]	@ 0x44
10000342:	6523      	str	r3, [r4, #80]	@ 0x50
10000344:	65a2      	str	r2, [r4, #88]	@ 0x58
10000346:	6663      	str	r3, [r4, #100]	@ 0x64
10000348:	66e2      	str	r2, [r4, #108]	@ 0x6c
1000034a:	67a3      	str	r3, [r4, #120]	@ 0x78
1000034c:	f8c4 2080 	str.w	r2, [r4, #128]	@ 0x80
10000350:	64e1      	str	r1, [r4, #76]	@ 0x4c
10000352:	6621      	str	r1, [r4, #96]	@ 0x60
10000354:	6761      	str	r1, [r4, #116]	@ 0x74
10000356:	f8c4 1088 	str.w	r1, [r4, #136]	@ 0x88
1000035a:	6126      	str	r6, [r4, #16]
1000035c:	f8c4 308c 	str.w	r3, [r4, #140]	@ 0x8c
10000360:	e9c4 3224 	strd	r3, r2, [r4, #144]	@ 0x90
10000364:	f8c4 30a0 	str.w	r3, [r4, #160]	@ 0xa0
10000368:	f103 4301 	add.w	r3, r3, #2164260864	@ 0x81000000
1000036c:	e9c4 0229 	strd	r0, r2, [r4, #164]	@ 0xa4
10000370:	f503 13e4 	add.w	r3, r3, #1867776	@ 0x1c8000
10000374:	480f      	ldr	r0, [pc, #60]	@ (100003b4 <pico_boot_config_defaults+0xe4>)
10000376:	f8c4 109c 	str.w	r1, [r4, #156]	@ 0x9c
1000037a:	f503 53ee 	add.w	r3, r3, #7616	@ 0x1dc0
1000037e:	f8c4 5098 	str.w	r5, [r4, #152]	@ 0x98
10000382:	1e62      	subs	r2, r4, #1
10000384:	f104 0cd3 	add.w	ip, r4, #211	@ 0xd3
10000388:	f812 1f01 	ldrb.w	r1, [r2, #1]!
1000038c:	404b      	eors	r3, r1
1000038e:	4562      	cmp	r2, ip
10000390:	fb00 f303 	mul.w	r3, r0, r3
10000394:	d1f8      	bne.n	10000388 <pico_boot_config_defaults+0xb8>
10000396:	f8c4 30d4 	str.w	r3, [r4, #212]	@ 0xd4
1000039a:	bd70      	pop	{r4, r5, r6, pc}
1000039c:	50494253 	.word	0x50494253
100003a0:	45cccb33 	.word	0x45cccb33
100003a4:	457ff000 	.word	0x457ff000
100003a8:	44112666 	.word	0x44112666
100003ac:	00d80004 	.word	0x00d80004
100003b0:	0ee6b280 	.word	0x0ee6b280
100003b4:	01000193 	.word	0x01000193

100003b8 <pico_boot_config_load>:
100003b8:	4b50      	ldr	r3, [pc, #320]	@ (100004fc <pico_boot_config_load+0x144>)
100003ba:	b4f0      	push	{r4, r5, r6, r7}
100003bc:	4950      	ldr	r1, [pc, #320]	@ (10000500 <pico_boot_config_load+0x148>)
100003be:	681c      	ldr	r4, [r3, #0]
100003c0:	4a50      	ldr	r2, [pc, #320]	@ (10000504 <pico_boot_config_load+0x14c>)
100003c2:	428c      	cmp	r4, r1
100003c4:	6815      	ldr	r5, [r2, #0]
100003c6:	d004      	beq.n	100003d2 <pico_boot_config_load+0x1a>
100003c8:	428d      	cmp	r5, r1
100003ca:	d017      	beq.n	100003fc <pico_boot_config_load+0x44>
100003cc:	bcf0      	pop	{r4, r5, r6, r7}
100003ce:	f7ff bf7f 	b.w	100002d0 <pico_boot_config_defaults>
100003d2:	889a      	ldrh	r2, [r3, #4]
100003d4:	2a04      	cmp	r2, #4
100003d6:	d049      	beq.n	1000046c <pico_boot_config_load+0xb4>
100003d8:	42a5      	cmp	r5, r4
100003da:	d1f7      	bne.n	100003cc <pico_boot_config_load+0x14>
100003dc:	4b49      	ldr	r3, [pc, #292]	@ (10000504 <pico_boot_config_load+0x14c>)
100003de:	889a      	ldrh	r2, [r3, #4]
100003e0:	2a04      	cmp	r2, #4
100003e2:	d1f3      	bne.n	100003cc <pico_boot_config_load+0x14>
100003e4:	88da      	ldrh	r2, [r3, #6]
100003e6:	2ad8      	cmp	r2, #216	@ 0xd8
100003e8:	d1f0      	bne.n	100003cc <pico_boot_config_load+0x14>
100003ea:	7b5a      	ldrb	r2, [r3, #13]
100003ec:	1e51      	subs	r1, r2, #1
100003ee:	2907      	cmp	r1, #7
100003f0:	d8ec      	bhi.n	100003cc <pico_boot_config_load+0x14>
100003f2:	7b19      	ldrb	r1, [r3, #12]
100003f4:	4291      	cmp	r1, r2
100003f6:	d2e9      	bcs.n	100003cc <pico_boot_config_load+0x14>
100003f8:	691b      	ldr	r3, [r3, #16]
100003fa:	e00d      	b.n	10000418 <pico_boot_config_load+0x60>
100003fc:	8893      	ldrh	r3, [r2, #4]
100003fe:	2b04      	cmp	r3, #4
10000400:	d1e4      	bne.n	100003cc <pico_boot_config_load+0x14>
10000402:	88d3      	ldrh	r3, [r2, #6]
10000404:	2bd8      	cmp	r3, #216	@ 0xd8
10000406:	d1e1      	bne.n	100003cc <pico_boot_config_load+0x14>
10000408:	7b53      	ldrb	r3, [r2, #13]
1000040a:	1e59      	subs	r1, r3, #1
1000040c:	2907      	cmp	r1, #7
1000040e:	d8dd      	bhi.n	100003cc <pico_boot_config_load+0x14>
10000410:	7b11      	ldrb	r1, [r2, #12]
10000412:	4299      	cmp	r1, r3
10000414:	d2da      	bcs.n	100003cc <pico_boot_config_load+0x14>
10000416:	6913      	ldr	r3, [r2, #16]
10000418:	4a3b      	ldr	r2, [pc, #236]	@ (10000508 <pico_boot_config_load+0x150>)
1000041a:	f1a3 7337 	sub.w	r3, r3, #47972352	@ 0x2dc0000
1000041e:	f5a3 43d8 	sub.w	r3, r3, #27648	@ 0x6c00
10000422:	4293      	cmp	r3, r2
10000424:	d8d2      	bhi.n	100003cc <pico_boot_config_load+0x14>
10000426:	2600      	movs	r6, #0
10000428:	4b36      	ldr	r3, [pc, #216]	@ (10000504 <pico_boot_config_load+0x14c>)
1000042a:	4d38      	ldr	r5, [pc, #224]	@ (1000050c <pico_boot_config_load+0x154>)
1000042c:	461a      	mov	r2, r3
1000042e:	f8d3 70d4 	ldr.w	r7, [r3, #212]	@ 0xd4
10000432:	f103 43e2 	add.w	r3, r3, #1895825408	@ 0x71000000
10000436:	f503 13c5 	add.w	r3, r3, #1613824	@ 0x18a000
1000043a:	4c35      	ldr	r4, [pc, #212]	@ (10000510 <pico_boot_config_load+0x158>)
1000043c:	f603 53c5 	addw	r3, r3, #3525	@ 0xdc5
10000440:	f812 1b01 	ldrb.w	r1, [r2], #1
10000444:	404b      	eors	r3, r1
10000446:	42a2      	cmp	r2, r4
10000448:	fb05 f303 	mul.w	r3, r5, r3
1000044c:	d1f8      	bne.n	10000440 <pico_boot_config_load+0x88>
1000044e:	429f      	cmp	r7, r3
10000450:	d13d      	bne.n	100004ce <pico_boot_config_load+0x116>
10000452:	2e00      	cmp	r6, #0
10000454:	d036      	beq.n	100004c4 <pico_boot_config_load+0x10c>
10000456:	4a29      	ldr	r2, [pc, #164]	@ (100004fc <pico_boot_config_load+0x144>)
10000458:	4b2a      	ldr	r3, [pc, #168]	@ (10000504 <pico_boot_config_load+0x14c>)
1000045a:	6892      	ldr	r2, [r2, #8]
1000045c:	689b      	ldr	r3, [r3, #8]
1000045e:	429a      	cmp	r2, r3
10000460:	d330      	bcc.n	100004c4 <pico_boot_config_load+0x10c>
10000462:	bcf0      	pop	{r4, r5, r6, r7}
10000464:	22d8      	movs	r2, #216	@ 0xd8
10000466:	4925      	ldr	r1, [pc, #148]	@ (100004fc <pico_boot_config_load+0x144>)
10000468:	f002 bce2 	b.w	10002e30 <memcpy>
1000046c:	88da      	ldrh	r2, [r3, #6]
1000046e:	2ad8      	cmp	r2, #216	@ 0xd8
10000470:	d1b2      	bne.n	100003d8 <pico_boot_config_load+0x20>
10000472:	7b5a      	ldrb	r2, [r3, #13]
10000474:	1e51      	subs	r1, r2, #1
10000476:	2907      	cmp	r1, #7
10000478:	d8ae      	bhi.n	100003d8 <pico_boot_config_load+0x20>
1000047a:	7b19      	ldrb	r1, [r3, #12]
1000047c:	4291      	cmp	r1, r2
1000047e:	d2ab      	bcs.n	100003d8 <pico_boot_config_load+0x20>
10000480:	691a      	ldr	r2, [r3, #16]
10000482:	4921      	ldr	r1, [pc, #132]	@ (10000508 <pico_boot_config_load+0x150>)
10000484:	f1a2 7237 	sub.w	r2, r2, #47972352	@ 0x2dc0000
10000488:	f5a2 42d8 	sub.w	r2, r2, #27648	@ 0x6c00
1000048c:	428a      	cmp	r2, r1
1000048e:	d8a3      	bhi.n	100003d8 <pico_boot_config_load+0x20>
10000490:	461a      	mov	r2, r3
10000492:	f8d3 70d4 	ldr.w	r7, [r3, #212]	@ 0xd4
10000496:	491f      	ldr	r1, [pc, #124]	@ (10000514 <pico_boot_config_load+0x15c>)
10000498:	4e1c      	ldr	r6, [pc, #112]	@ (1000050c <pico_boot_config_load+0x154>)
1000049a:	4c1f      	ldr	r4, [pc, #124]	@ (10000518 <pico_boot_config_load+0x160>)
1000049c:	f812 3b01 	ldrb.w	r3, [r2], #1
100004a0:	404b      	eors	r3, r1
100004a2:	42a2      	cmp	r2, r4
100004a4:	fb06 f103 	mul.w	r1, r6, r3
100004a8:	d1f8      	bne.n	1000049c <pico_boot_config_load+0xe4>
100004aa:	4b15      	ldr	r3, [pc, #84]	@ (10000500 <pico_boot_config_load+0x148>)
100004ac:	429d      	cmp	r5, r3
100004ae:	d106      	bne.n	100004be <pico_boot_config_load+0x106>
100004b0:	4b14      	ldr	r3, [pc, #80]	@ (10000504 <pico_boot_config_load+0x14c>)
100004b2:	889a      	ldrh	r2, [r3, #4]
100004b4:	2a04      	cmp	r2, #4
100004b6:	d102      	bne.n	100004be <pico_boot_config_load+0x106>
100004b8:	88da      	ldrh	r2, [r3, #6]
100004ba:	2ad8      	cmp	r2, #216	@ 0xd8
100004bc:	d00a      	beq.n	100004d4 <pico_boot_config_load+0x11c>
100004be:	428f      	cmp	r7, r1
100004c0:	d0cf      	beq.n	10000462 <pico_boot_config_load+0xaa>
100004c2:	e783      	b.n	100003cc <pico_boot_config_load+0x14>
100004c4:	22d8      	movs	r2, #216	@ 0xd8
100004c6:	bcf0      	pop	{r4, r5, r6, r7}
100004c8:	490e      	ldr	r1, [pc, #56]	@ (10000504 <pico_boot_config_load+0x14c>)
100004ca:	f002 bcb1 	b.w	10002e30 <memcpy>
100004ce:	2e00      	cmp	r6, #0
100004d0:	d1c7      	bne.n	10000462 <pico_boot_config_load+0xaa>
100004d2:	e77b      	b.n	100003cc <pico_boot_config_load+0x14>
100004d4:	1a7a      	subs	r2, r7, r1
100004d6:	4256      	negs	r6, r2
100004d8:	4156      	adcs	r6, r2
100004da:	7b5a      	ldrb	r2, [r3, #13]
100004dc:	1e54      	subs	r4, r2, #1
100004de:	2c07      	cmp	r4, #7
100004e0:	d8ed      	bhi.n	100004be <pico_boot_config_load+0x106>
100004e2:	7b1c      	ldrb	r4, [r3, #12]
100004e4:	4294      	cmp	r4, r2
100004e6:	d2ea      	bcs.n	100004be <pico_boot_config_load+0x106>
100004e8:	691b      	ldr	r3, [r3, #16]
100004ea:	4a07      	ldr	r2, [pc, #28]	@ (10000508 <pico_boot_config_load+0x150>)
100004ec:	f1a3 7337 	sub.w	r3, r3, #47972352	@ 0x2dc0000
100004f0:	f5a3 43d8 	sub.w	r3, r3, #27648	@ 0x6c00
100004f4:	4293      	cmp	r3, r2
100004f6:	d997      	bls.n	10000428 <pico_boot_config_load+0x70>
100004f8:	e7e1      	b.n	100004be <pico_boot_config_load+0x106>
100004fa:	bf00      	nop
100004fc:	1003e000 	.word	0x1003e000
10000500:	50494253 	.word	0x50494253
10000504:	1003f000 	.word	0x1003f000
10000508:	0f053700 	.word	0x0f053700
1000050c:	01000193 	.word	0x01000193
10000510:	1003f0d4 	.word	0x1003f0d4
10000514:	811c9dc5 	.word	0x811c9dc5
10000518:	1003e0d4 	.word	0x1003e0d4

1000051c <pico_boot_config_save>:
1000051c:	b4f0      	push	{r4, r5, r6, r7}
1000051e:	2700      	movs	r7, #0
10000520:	6882      	ldr	r2, [r0, #8]
10000522:	4e5f      	ldr	r6, [pc, #380]	@ (100006a0 <pico_boot_config_save+0x184>)
10000524:	4d5f      	ldr	r5, [pc, #380]	@ (100006a4 <pico_boot_config_save+0x188>)
10000526:	3201      	adds	r2, #1
10000528:	4b5f      	ldr	r3, [pc, #380]	@ (100006a8 <pico_boot_config_save+0x18c>)
1000052a:	4c60      	ldr	r4, [pc, #384]	@ (100006ac <pico_boot_config_save+0x190>)
1000052c:	6082      	str	r2, [r0, #8]
1000052e:	4601      	mov	r1, r0
10000530:	e9c0 6500 	strd	r6, r5, [r0]
10000534:	f8c0 70d4 	str.w	r7, [r0, #212]	@ 0xd4
10000538:	1e42      	subs	r2, r0, #1
1000053a:	30d3      	adds	r0, #211	@ 0xd3
1000053c:	f812 cf01 	ldrb.w	ip, [r2, #1]!
10000540:	ea8c 0303 	eor.w	r3, ip, r3
10000544:	4290      	cmp	r0, r2
10000546:	fb04 f303 	mul.w	r3, r4, r3
1000054a:	d1f7      	bne.n	1000053c <pico_boot_config_save+0x20>
1000054c:	4a58      	ldr	r2, [pc, #352]	@ (100006b0 <pico_boot_config_save+0x194>)
1000054e:	f8c1 30d4 	str.w	r3, [r1, #212]	@ 0xd4
10000552:	6814      	ldr	r4, [r2, #0]
10000554:	4b52      	ldr	r3, [pc, #328]	@ (100006a0 <pico_boot_config_save+0x184>)
10000556:	4857      	ldr	r0, [pc, #348]	@ (100006b4 <pico_boot_config_save+0x198>)
10000558:	429c      	cmp	r4, r3
1000055a:	6805      	ldr	r5, [r0, #0]
1000055c:	d006      	beq.n	1000056c <pico_boot_config_save+0x50>
1000055e:	429d      	cmp	r5, r3
10000560:	d019      	beq.n	10000596 <pico_boot_config_save+0x7a>
10000562:	f44f 3078 	mov.w	r0, #253952	@ 0x3e000
10000566:	bcf0      	pop	{r4, r5, r6, r7}
10000568:	f7ff be8a 	b.w	10000280 <flash_write_sector.constprop.0>
1000056c:	8893      	ldrh	r3, [r2, #4]
1000056e:	2b04      	cmp	r3, #4
10000570:	d04b      	beq.n	1000060a <pico_boot_config_save+0xee>
10000572:	42a5      	cmp	r5, r4
10000574:	d1f5      	bne.n	10000562 <pico_boot_config_save+0x46>
10000576:	4b4f      	ldr	r3, [pc, #316]	@ (100006b4 <pico_boot_config_save+0x198>)
10000578:	889a      	ldrh	r2, [r3, #4]
1000057a:	2a04      	cmp	r2, #4
1000057c:	d1f1      	bne.n	10000562 <pico_boot_config_save+0x46>
1000057e:	88da      	ldrh	r2, [r3, #6]
10000580:	2ad8      	cmp	r2, #216	@ 0xd8
10000582:	d1ee      	bne.n	10000562 <pico_boot_config_save+0x46>
10000584:	7b5a      	ldrb	r2, [r3, #13]
10000586:	1e50      	subs	r0, r2, #1
10000588:	2807      	cmp	r0, #7
1000058a:	d8ea      	bhi.n	10000562 <pico_boot_config_save+0x46>
1000058c:	7b18      	ldrb	r0, [r3, #12]
1000058e:	4290      	cmp	r0, r2
10000590:	d2e7      	bcs.n	10000562 <pico_boot_config_save+0x46>
10000592:	691b      	ldr	r3, [r3, #16]
10000594:	e00d      	b.n	100005b2 <pico_boot_config_save+0x96>
10000596:	8883      	ldrh	r3, [r0, #4]
10000598:	2b04      	cmp	r3, #4
1000059a:	d1e2      	bne.n	10000562 <pico_boot_config_save+0x46>
1000059c:	88c3      	ldrh	r3, [r0, #6]
1000059e:	2bd8      	cmp	r3, #216	@ 0xd8
100005a0:	d1df      	bne.n	10000562 <pico_boot_config_save+0x46>
100005a2:	7b43      	ldrb	r3, [r0, #13]
100005a4:	1e5a      	subs	r2, r3, #1
100005a6:	2a07      	cmp	r2, #7
100005a8:	d8db      	bhi.n	10000562 <pico_boot_config_save+0x46>
100005aa:	7b02      	ldrb	r2, [r0, #12]
100005ac:	429a      	cmp	r2, r3
100005ae:	d2d8      	bcs.n	10000562 <pico_boot_config_save+0x46>
100005b0:	6903      	ldr	r3, [r0, #16]
100005b2:	4a41      	ldr	r2, [pc, #260]	@ (100006b8 <pico_boot_config_save+0x19c>)
100005b4:	f1a3 7337 	sub.w	r3, r3, #47972352	@ 0x2dc0000
100005b8:	f5a3 43d8 	sub.w	r3, r3, #27648	@ 0x6c00
100005bc:	4293      	cmp	r3, r2
100005be:	d8d0      	bhi.n	10000562 <pico_boot_config_save+0x46>
100005c0:	2600      	movs	r6, #0
100005c2:	4b3c      	ldr	r3, [pc, #240]	@ (100006b4 <pico_boot_config_save+0x198>)
100005c4:	4d39      	ldr	r5, [pc, #228]	@ (100006ac <pico_boot_config_save+0x190>)
100005c6:	461a      	mov	r2, r3
100005c8:	f8d3 70d4 	ldr.w	r7, [r3, #212]	@ 0xd4
100005cc:	f103 43e2 	add.w	r3, r3, #1895825408	@ 0x71000000
100005d0:	f503 13c5 	add.w	r3, r3, #1613824	@ 0x18a000
100005d4:	4c39      	ldr	r4, [pc, #228]	@ (100006bc <pico_boot_config_save+0x1a0>)
100005d6:	f603 53c5 	addw	r3, r3, #3525	@ 0xdc5
100005da:	f812 0b01 	ldrb.w	r0, [r2], #1
100005de:	4043      	eors	r3, r0
100005e0:	42a2      	cmp	r2, r4
100005e2:	fb05 f303 	mul.w	r3, r5, r3
100005e6:	d1f8      	bne.n	100005da <pico_boot_config_save+0xbe>
100005e8:	429f      	cmp	r7, r3
100005ea:	d13e      	bne.n	1000066a <pico_boot_config_save+0x14e>
100005ec:	2e00      	cmp	r6, #0
100005ee:	d0b8      	beq.n	10000562 <pico_boot_config_save+0x46>
100005f0:	bcf0      	pop	{r4, r5, r6, r7}
100005f2:	4a30      	ldr	r2, [pc, #192]	@ (100006b4 <pico_boot_config_save+0x198>)
100005f4:	4b2e      	ldr	r3, [pc, #184]	@ (100006b0 <pico_boot_config_save+0x194>)
100005f6:	6890      	ldr	r0, [r2, #8]
100005f8:	689b      	ldr	r3, [r3, #8]
100005fa:	4298      	cmp	r0, r3
100005fc:	bf2c      	ite	cs
100005fe:	f44f 3078 	movcs.w	r0, #253952	@ 0x3e000
10000602:	f44f 307c 	movcc.w	r0, #258048	@ 0x3f000
10000606:	f7ff be3b 	b.w	10000280 <flash_write_sector.constprop.0>
1000060a:	88d3      	ldrh	r3, [r2, #6]
1000060c:	2bd8      	cmp	r3, #216	@ 0xd8
1000060e:	d1b0      	bne.n	10000572 <pico_boot_config_save+0x56>
10000610:	7b53      	ldrb	r3, [r2, #13]
10000612:	1e58      	subs	r0, r3, #1
10000614:	2807      	cmp	r0, #7
10000616:	d8ac      	bhi.n	10000572 <pico_boot_config_save+0x56>
10000618:	7b10      	ldrb	r0, [r2, #12]
1000061a:	4298      	cmp	r0, r3
1000061c:	d2a9      	bcs.n	10000572 <pico_boot_config_save+0x56>
1000061e:	6913      	ldr	r3, [r2, #16]
10000620:	4825      	ldr	r0, [pc, #148]	@ (100006b8 <pico_boot_config_save+0x19c>)
10000622:	f1a3 7337 	sub.w	r3, r3, #47972352	@ 0x2dc0000
10000626:	f5a3 43d8 	sub.w	r3, r3, #27648	@ 0x6c00
1000062a:	4283      	cmp	r3, r0
1000062c:	d8a1      	bhi.n	10000572 <pico_boot_config_save+0x56>
1000062e:	4614      	mov	r4, r2
10000630:	f8d2 00d4 	ldr.w	r0, [r2, #212]	@ 0xd4
10000634:	4f1d      	ldr	r7, [pc, #116]	@ (100006ac <pico_boot_config_save+0x190>)
10000636:	4a1c      	ldr	r2, [pc, #112]	@ (100006a8 <pico_boot_config_save+0x18c>)
10000638:	4e21      	ldr	r6, [pc, #132]	@ (100006c0 <pico_boot_config_save+0x1a4>)
1000063a:	f814 3b01 	ldrb.w	r3, [r4], #1
1000063e:	4053      	eors	r3, r2
10000640:	42b4      	cmp	r4, r6
10000642:	fb07 f203 	mul.w	r2, r7, r3
10000646:	d1f8      	bne.n	1000063a <pico_boot_config_save+0x11e>
10000648:	4b15      	ldr	r3, [pc, #84]	@ (100006a0 <pico_boot_config_save+0x184>)
1000064a:	429d      	cmp	r5, r3
1000064c:	d106      	bne.n	1000065c <pico_boot_config_save+0x140>
1000064e:	4b19      	ldr	r3, [pc, #100]	@ (100006b4 <pico_boot_config_save+0x198>)
10000650:	889c      	ldrh	r4, [r3, #4]
10000652:	2c04      	cmp	r4, #4
10000654:	d102      	bne.n	1000065c <pico_boot_config_save+0x140>
10000656:	88dc      	ldrh	r4, [r3, #6]
10000658:	2cd8      	cmp	r4, #216	@ 0xd8
1000065a:	d00d      	beq.n	10000678 <pico_boot_config_save+0x15c>
1000065c:	4290      	cmp	r0, r2
1000065e:	bf14      	ite	ne
10000660:	f44f 3078 	movne.w	r0, #253952	@ 0x3e000
10000664:	f44f 307c 	moveq.w	r0, #258048	@ 0x3f000
10000668:	e77d      	b.n	10000566 <pico_boot_config_save+0x4a>
1000066a:	2e00      	cmp	r6, #0
1000066c:	bf0c      	ite	eq
1000066e:	f44f 3078 	moveq.w	r0, #253952	@ 0x3e000
10000672:	f44f 307c 	movne.w	r0, #258048	@ 0x3f000
10000676:	e776      	b.n	10000566 <pico_boot_config_save+0x4a>
10000678:	1a84      	subs	r4, r0, r2
1000067a:	4266      	negs	r6, r4
1000067c:	4166      	adcs	r6, r4
1000067e:	7b5c      	ldrb	r4, [r3, #13]
10000680:	1e65      	subs	r5, r4, #1
10000682:	2d07      	cmp	r5, #7
10000684:	d8ea      	bhi.n	1000065c <pico_boot_config_save+0x140>
10000686:	7b1d      	ldrb	r5, [r3, #12]
10000688:	42a5      	cmp	r5, r4
1000068a:	d2e7      	bcs.n	1000065c <pico_boot_config_save+0x140>
1000068c:	691b      	ldr	r3, [r3, #16]
1000068e:	4c0a      	ldr	r4, [pc, #40]	@ (100006b8 <pico_boot_config_save+0x19c>)
10000690:	f1a3 7337 	sub.w	r3, r3, #47972352	@ 0x2dc0000
10000694:	f5a3 43d8 	sub.w	r3, r3, #27648	@ 0x6c00
10000698:	42a3      	cmp	r3, r4
1000069a:	d992      	bls.n	100005c2 <pico_boot_config_save+0xa6>
1000069c:	e7de      	b.n	1000065c <pico_boot_config_save+0x140>
1000069e:	bf00      	nop
100006a0:	50494253 	.word	0x50494253
100006a4:	00d80004 	.word	0x00d80004
100006a8:	811c9dc5 	.word	0x811c9dc5
100006ac:	01000193 	.word	0x01000193
100006b0:	1003e000 	.word	0x1003e000
100006b4:	1003f000 	.word	0x1003f000
100006b8:	0f053700 	.word	0x0f053700
100006bc:	1003f0d4 	.word	0x1003f0d4
100006c0:	1003e0d4 	.word	0x1003e0d4

100006c4 <pico_boot_calibration_run>:
100006c4:	e92d 4ff0 	stmdb	sp!, {r4, r5, r6, r7, r8, r9, sl, fp, lr}
100006c8:	ed2d 8b02 	vpush	{d8}
100006cc:	b091      	sub	sp, #68	@ 0x44
100006ce:	460d      	mov	r5, r1
100006d0:	9005      	str	r0, [sp, #20]
100006d2:	f002 f9f9 	bl	10002ac8 <adc_init>
100006d6:	211f      	movs	r1, #31
100006d8:	201a      	movs	r0, #26
100006da:	f000 fea9 	bl	10001430 <gpio_set_function>
100006de:	2200      	movs	r2, #0
100006e0:	201a      	movs	r0, #26
100006e2:	4611      	mov	r1, r2
100006e4:	f000 fec2 	bl	1000146c <gpio_set_pulls>
100006e8:	2100      	movs	r1, #0
100006ea:	201a      	movs	r0, #26
100006ec:	f000 fed2 	bl	10001494 <gpio_set_input_enabled>
100006f0:	211f      	movs	r1, #31
100006f2:	201b      	movs	r0, #27
100006f4:	f000 fe9c 	bl	10001430 <gpio_set_function>
100006f8:	2200      	movs	r2, #0
100006fa:	201b      	movs	r0, #27
100006fc:	4611      	mov	r1, r2
100006fe:	f000 feb5 	bl	1000146c <gpio_set_pulls>
10000702:	2100      	movs	r1, #0
10000704:	201b      	movs	r0, #27
10000706:	f000 fec5 	bl	10001494 <gpio_set_input_enabled>
1000070a:	4bb6      	ldr	r3, [pc, #728]	@ (100009e4 <pico_boot_calibration_run+0x320>)
1000070c:	781f      	ldrb	r7, [r3, #0]
1000070e:	2f00      	cmp	r7, #0
10000710:	f000 8188 	beq.w	10000a24 <pico_boot_calibration_run+0x360>
10000714:	f10d 0930 	add.w	r9, sp, #48	@ 0x30
10000718:	f640 019d 	movw	r1, #2205	@ 0x89d
1000071c:	4ab2      	ldr	r2, [pc, #712]	@ (100009e8 <pico_boot_calibration_run+0x324>)
1000071e:	6853      	ldr	r3, [r2, #4]
10000720:	f413 3380 	ands.w	r3, r3, #65536	@ 0x10000
10000724:	d1fb      	bne.n	1000071e <pico_boot_calibration_run+0x5a>
10000726:	3901      	subs	r1, #1
10000728:	6113      	str	r3, [r2, #16]
1000072a:	d1f8      	bne.n	1000071e <pico_boot_calibration_run+0x5a>
1000072c:	235a      	movs	r3, #90	@ 0x5a
1000072e:	686c      	ldr	r4, [r5, #4]
10000730:	461a      	mov	r2, r3
10000732:	2102      	movs	r1, #2
10000734:	f04f 2012 	mov.w	r0, #301994496	@ 0x12001200
10000738:	47a0      	blx	r4
1000073a:	f8df 82e4 	ldr.w	r8, [pc, #740]	@ 10000a20 <pico_boot_calibration_run+0x35c>
1000073e:	ab09      	add	r3, sp, #36	@ 0x24
10000740:	4faa      	ldr	r7, [pc, #680]	@ (100009ec <pico_boot_calibration_run+0x328>)
10000742:	4cab      	ldr	r4, [pc, #684]	@ (100009f0 <pico_boot_calibration_run+0x32c>)
10000744:	9303      	str	r3, [sp, #12]
10000746:	f858 3b04 	ldr.w	r3, [r8], #4
1000074a:	4618      	mov	r0, r3
1000074c:	9304      	str	r3, [sp, #16]
1000074e:	682b      	ldr	r3, [r5, #0]
10000750:	4798      	blx	r3
10000752:	68eb      	ldr	r3, [r5, #12]
10000754:	f44f 60fa 	mov.w	r0, #2000	@ 0x7d0
10000758:	4798      	blx	r3
1000075a:	e002      	b.n	10000762 <pico_boot_calibration_run+0x9e>
1000075c:	2005      	movs	r0, #5
1000075e:	f001 fb1d 	bl	10001d9c <sleep_ms>
10000762:	68ab      	ldr	r3, [r5, #8]
10000764:	4798      	blx	r3
10000766:	2800      	cmp	r0, #0
10000768:	d0f8      	beq.n	1000075c <pico_boot_calibration_run+0x98>
1000076a:	201e      	movs	r0, #30
1000076c:	f001 fb16 	bl	10001d9c <sleep_ms>
10000770:	683b      	ldr	r3, [r7, #0]
10000772:	4aa0      	ldr	r2, [pc, #640]	@ (100009f4 <pico_boot_calibration_run+0x330>)
10000774:	f403 4370 	and.w	r3, r3, #61440	@ 0xf000
10000778:	6013      	str	r3, [r2, #0]
1000077a:	2014      	movs	r0, #20
1000077c:	2100      	movs	r1, #0
1000077e:	f44f 7a80 	mov.w	sl, #256	@ 0x100
10000782:	f001 fa9f 	bl	10001cc4 <sleep_us>
10000786:	462b      	mov	r3, r5
10000788:	f04f 0b00 	mov.w	fp, #0
1000078c:	4655      	mov	r5, sl
1000078e:	2604      	movs	r6, #4
10000790:	469a      	mov	sl, r3
10000792:	6026      	str	r6, [r4, #0]
10000794:	683b      	ldr	r3, [r7, #0]
10000796:	05d9      	lsls	r1, r3, #23
10000798:	d5fc      	bpl.n	10000794 <pico_boot_calibration_run+0xd0>
1000079a:	687b      	ldr	r3, [r7, #4]
1000079c:	3d01      	subs	r5, #1
1000079e:	2050      	movs	r0, #80	@ 0x50
100007a0:	2100      	movs	r1, #0
100007a2:	b2ad      	uxth	r5, r5
100007a4:	fa1b fb83 	uxtah	fp, fp, r3
100007a8:	f001 fa8c 	bl	10001cc4 <sleep_us>
100007ac:	2d00      	cmp	r5, #0
100007ae:	d1f0      	bne.n	10000792 <pico_boot_calibration_run+0xce>
100007b0:	4653      	mov	r3, sl
100007b2:	46aa      	mov	sl, r5
100007b4:	461d      	mov	r5, r3
100007b6:	f10b 0280 	add.w	r2, fp, #128	@ 0x80
100007ba:	9b03      	ldr	r3, [sp, #12]
100007bc:	0a12      	lsrs	r2, r2, #8
100007be:	f823 2b02 	strh.w	r2, [r3], #2
100007c2:	683a      	ldr	r2, [r7, #0]
100007c4:	9303      	str	r3, [sp, #12]
100007c6:	f482 5280 	eor.w	r2, r2, #4096	@ 0x1000
100007ca:	4b8a      	ldr	r3, [pc, #552]	@ (100009f4 <pico_boot_calibration_run+0x330>)
100007cc:	f402 4270 	and.w	r2, r2, #61440	@ 0xf000
100007d0:	601a      	str	r2, [r3, #0]
100007d2:	2014      	movs	r0, #20
100007d4:	2100      	movs	r1, #0
100007d6:	f44f 7b80 	mov.w	fp, #256	@ 0x100
100007da:	f001 fa73 	bl	10001cc4 <sleep_us>
100007de:	462b      	mov	r3, r5
100007e0:	2604      	movs	r6, #4
100007e2:	465d      	mov	r5, fp
100007e4:	469b      	mov	fp, r3
100007e6:	6026      	str	r6, [r4, #0]
100007e8:	683b      	ldr	r3, [r7, #0]
100007ea:	05da      	lsls	r2, r3, #23
100007ec:	d5fc      	bpl.n	100007e8 <pico_boot_calibration_run+0x124>
100007ee:	687b      	ldr	r3, [r7, #4]
100007f0:	3d01      	subs	r5, #1
100007f2:	2050      	movs	r0, #80	@ 0x50
100007f4:	2100      	movs	r1, #0
100007f6:	b2ad      	uxth	r5, r5
100007f8:	fa1a fa83 	uxtah	sl, sl, r3
100007fc:	f001 fa62 	bl	10001cc4 <sleep_us>
10000800:	2d00      	cmp	r5, #0
10000802:	d1f0      	bne.n	100007e6 <pico_boot_calibration_run+0x122>
10000804:	f10a 0380 	add.w	r3, sl, #128	@ 0x80
10000808:	0a1b      	lsrs	r3, r3, #8
1000080a:	223c      	movs	r2, #60	@ 0x3c
1000080c:	2101      	movs	r1, #1
1000080e:	9804      	ldr	r0, [sp, #16]
10000810:	f829 3b02 	strh.w	r3, [r9], #2
10000814:	f8db 6004 	ldr.w	r6, [fp, #4]
10000818:	2328      	movs	r3, #40	@ 0x28
1000081a:	47b0      	blx	r6
1000081c:	f8db 300c 	ldr.w	r3, [fp, #12]
10000820:	f44f 60fa 	mov.w	r0, #2000	@ 0x7d0
10000824:	4798      	blx	r3
10000826:	4b74      	ldr	r3, [pc, #464]	@ (100009f8 <pico_boot_calibration_run+0x334>)
10000828:	465d      	mov	r5, fp
1000082a:	4598      	cmp	r8, r3
1000082c:	d18b      	bne.n	10000746 <pico_boot_calibration_run+0x82>
1000082e:	f8bd 3024 	ldrh.w	r3, [sp, #36]	@ 0x24
10000832:	ed9f 1a72 	vldr	s2, [pc, #456]	@ 100009fc <pico_boot_calibration_run+0x338>
10000836:	ee06 3a90 	vmov	s13, r3
1000083a:	f8bd 3026 	ldrh.w	r3, [sp, #38]	@ 0x26
1000083e:	eef8 6a66 	vcvt.f32.u32	s13, s13
10000842:	ee07 3a90 	vmov	s15, r3
10000846:	f8bd 3028 	ldrh.w	r3, [sp, #40]	@ 0x28
1000084a:	eef8 7a67 	vcvt.f32.u32	s15, s15
1000084e:	ee05 3a10 	vmov	s10, r3
10000852:	f8bd 302a 	ldrh.w	r3, [sp, #42]	@ 0x2a
10000856:	eeb8 5a45 	vcvt.f32.u32	s10, s10
1000085a:	ee05 3a90 	vmov	s11, r3
1000085e:	ee76 7ae7 	vsub.f32	s15, s13, s15
10000862:	f8bd 302c 	ldrh.w	r3, [sp, #44]	@ 0x2c
10000866:	eef0 1a00 	vmov.f32	s3, #0	@ 0x40000000  2.0
1000086a:	ee06 3a10 	vmov	s12, r3
1000086e:	eef8 5a65 	vcvt.f32.u32	s11, s11
10000872:	ee36 5ac5 	vsub.f32	s10, s13, s10
10000876:	ee77 7a81 	vadd.f32	s15, s15, s2
1000087a:	f8bd 302e 	ldrh.w	r3, [sp, #46]	@ 0x2e
1000087e:	eeb0 2a08 	vmov.f32	s4, #8	@ 0x40400000  3.0
10000882:	eeb8 6a46 	vcvt.f32.u32	s12, s12
10000886:	ee07 3a10 	vmov	s14, r3
1000088a:	ee76 5ae5 	vsub.f32	s11, s13, s11
1000088e:	eee5 7a21 	vfma.f32	s15, s10, s3
10000892:	eef1 2a00 	vmov.f32	s5, #16	@ 0x40800000  4.0
10000896:	eeb8 7a47 	vcvt.f32.u32	s14, s14
1000089a:	ee36 6ac6 	vsub.f32	s12, s13, s12
1000089e:	eee5 7a82 	vfma.f32	s15, s11, s4
100008a2:	eeb1 3a04 	vmov.f32	s6, #20	@ 0x40a00000  5.0
100008a6:	ee36 7ac7 	vsub.f32	s14, s13, s14
100008aa:	eee6 7a22 	vfma.f32	s15, s12, s5
100008ae:	eddf 3a54 	vldr	s7, [pc, #336]	@ 10000a00 <pico_boot_calibration_run+0x33c>
100008b2:	eee7 7a03 	vfma.f32	s15, s14, s6
100008b6:	ed9f 4a53 	vldr	s8, [pc, #332]	@ 10000a04 <pico_boot_calibration_run+0x340>
100008ba:	eec7 0aa3 	vdiv.f32	s1, s15, s7
100008be:	eef4 0ac4 	vcmpe.f32	s1, s8
100008c2:	eef1 fa10 	vmrs	APSR_nzcv, fpscr
100008c6:	f8db 4004 	ldr.w	r4, [fp, #4]
100008ca:	db7e      	blt.n	100009ca <pico_boot_calibration_run+0x306>
100008cc:	ed9f 0a4e 	vldr	s0, [pc, #312]	@ 10000a08 <pico_boot_calibration_run+0x344>
100008d0:	eef4 0ac0 	vcmpe.f32	s1, s0
100008d4:	eef1 fa10 	vmrs	APSR_nzcv, fpscr
100008d8:	d877      	bhi.n	100009ca <pico_boot_calibration_run+0x306>
100008da:	f8bd 3030 	ldrh.w	r3, [sp, #48]	@ 0x30
100008de:	ee07 3a10 	vmov	s14, r3
100008e2:	f8bd 303a 	ldrh.w	r3, [sp, #58]	@ 0x3a
100008e6:	eeb8 7a47 	vcvt.f32.u32	s14, s14
100008ea:	ee06 3a10 	vmov	s12, r3
100008ee:	f8bd 3038 	ldrh.w	r3, [sp, #56]	@ 0x38
100008f2:	eeb8 6a46 	vcvt.f32.u32	s12, s12
100008f6:	ee05 3a90 	vmov	s11, r3
100008fa:	f8bd 3036 	ldrh.w	r3, [sp, #54]	@ 0x36
100008fe:	eef8 5a65 	vcvt.f32.u32	s11, s11
10000902:	ee05 3a10 	vmov	s10, r3
10000906:	f8bd 3032 	ldrh.w	r3, [sp, #50]	@ 0x32
1000090a:	eeb8 5a45 	vcvt.f32.u32	s10, s10
1000090e:	ee07 3a90 	vmov	s15, r3
10000912:	f8bd 3034 	ldrh.w	r3, [sp, #52]	@ 0x34
10000916:	eef8 7a67 	vcvt.f32.u32	s15, s15
1000091a:	ee04 3a90 	vmov	s9, r3
1000091e:	ee77 7a67 	vsub.f32	s15, s14, s15
10000922:	eef8 4a64 	vcvt.f32.u32	s9, s9
10000926:	ee77 7a81 	vadd.f32	s15, s15, s2
1000092a:	ee77 4a64 	vsub.f32	s9, s14, s9
1000092e:	ee37 5a45 	vsub.f32	s10, s14, s10
10000932:	eee4 7aa1 	vfma.f32	s15, s9, s3
10000936:	ee77 5a65 	vsub.f32	s11, s14, s11
1000093a:	eee5 7a02 	vfma.f32	s15, s10, s4
1000093e:	ee37 6a46 	vsub.f32	s12, s14, s12
10000942:	eee5 7aa2 	vfma.f32	s15, s11, s5
10000946:	eee6 7a03 	vfma.f32	s15, s12, s6
1000094a:	ee87 6aa3 	vdiv.f32	s12, s15, s7
1000094e:	eeb4 6ac4 	vcmpe.f32	s12, s8
10000952:	eef1 fa10 	vmrs	APSR_nzcv, fpscr
10000956:	db38      	blt.n	100009ca <pico_boot_calibration_run+0x306>
10000958:	eeb4 6ac0 	vcmpe.f32	s12, s0
1000095c:	eef1 fa10 	vmrs	APSR_nzcv, fpscr
10000960:	d833      	bhi.n	100009ca <pico_boot_calibration_run+0x306>
10000962:	9e05      	ldr	r6, [sp, #20]
10000964:	2350      	movs	r3, #80	@ 0x50
10000966:	edc6 0a05 	vstr	s1, [r6, #20]
1000096a:	ed86 6a06 	vstr	s12, [r6, #24]
1000096e:	edc6 6a08 	vstr	s13, [r6, #32]
10000972:	ed86 7a09 	vstr	s14, [r6, #36]	@ 0x24
10000976:	2278      	movs	r2, #120	@ 0x78
10000978:	2103      	movs	r1, #3
1000097a:	f04f 50c0 	mov.w	r0, #402653184	@ 0x18000000
1000097e:	47a0      	blx	r4
10000980:	eddf 7a22 	vldr	s15, [pc, #136]	@ 10000a0c <pico_boot_calibration_run+0x348>
10000984:	ed96 8a07 	vldr	s16, [r6, #28]
10000988:	eeb4 8ae7 	vcmpe.f32	s16, s15
1000098c:	eef1 fa10 	vmrs	APSR_nzcv, fpscr
10000990:	db06      	blt.n	100009a0 <pico_boot_calibration_run+0x2dc>
10000992:	eddf 7a1f 	vldr	s15, [pc, #124]	@ 10000a10 <pico_boot_calibration_run+0x34c>
10000996:	eeb4 8ae7 	vcmpe.f32	s16, s15
1000099a:	eef1 fa10 	vmrs	APSR_nzcv, fpscr
1000099e:	d901      	bls.n	100009a4 <pico_boot_calibration_run+0x2e0>
100009a0:	ed9f 8a1c 	vldr	s16, [pc, #112]	@ 10000a14 <pico_boot_calibration_run+0x350>
100009a4:	2350      	movs	r3, #80	@ 0x50
100009a6:	2102      	movs	r1, #2
100009a8:	461a      	mov	r2, r3
100009aa:	481b      	ldr	r0, [pc, #108]	@ (10000a18 <pico_boot_calibration_run+0x354>)
100009ac:	686c      	ldr	r4, [r5, #4]
100009ae:	47a0      	blx	r4
100009b0:	682b      	ldr	r3, [r5, #0]
100009b2:	4819      	ldr	r0, [pc, #100]	@ (10000a18 <pico_boot_calibration_run+0x354>)
100009b4:	4798      	blx	r3
100009b6:	4b0b      	ldr	r3, [pc, #44]	@ (100009e4 <pico_boot_calibration_run+0x320>)
100009b8:	f641 12d7 	movw	r2, #6615	@ 0x19d7
100009bc:	781b      	ldrb	r3, [r3, #0]
100009be:	2b00      	cmp	r3, #0
100009c0:	f040 80b2 	bne.w	10000b28 <pico_boot_calibration_run+0x464>
100009c4:	3a01      	subs	r2, #1
100009c6:	d1fd      	bne.n	100009c4 <pico_boot_calibration_run+0x300>
100009c8:	e0b6      	b.n	10000b38 <pico_boot_calibration_run+0x474>
100009ca:	2378      	movs	r3, #120	@ 0x78
100009cc:	2106      	movs	r1, #6
100009ce:	461a      	mov	r2, r3
100009d0:	4812      	ldr	r0, [pc, #72]	@ (10000a1c <pico_boot_calibration_run+0x358>)
100009d2:	47a0      	blx	r4
100009d4:	f04f 0a00 	mov.w	sl, #0
100009d8:	4650      	mov	r0, sl
100009da:	b011      	add	sp, #68	@ 0x44
100009dc:	ecbd 8b02 	vpop	{d8}
100009e0:	e8bd 8ff0 	ldmia.w	sp!, {r4, r5, r6, r7, r8, r9, sl, fp, pc}
100009e4:	20000815 	.word	0x20000815
100009e8:	50300000 	.word	0x50300000
100009ec:	400a0000 	.word	0x400a0000
100009f0:	400a2000 	.word	0x400a2000
100009f4:	400a1000 	.word	0x400a1000
100009f8:	10002f5c 	.word	0x10002f5c
100009fc:	00000000 	.word	0x00000000
10000a00:	425c0000 	.word	0x425c0000
10000a04:	42c80000 	.word	0x42c80000
10000a08:	44960000 	.word	0x44960000
10000a0c:	457a0000 	.word	0x457a0000
10000a10:	460ca000 	.word	0x460ca000
10000a14:	45cccb33 	.word	0x45cccb33
10000a18:	18181800 	.word	0x18181800
10000a1c:	00121200 	.word	0x00121200
10000a20:	10002f44 	.word	0x10002f44
10000a24:	4c50      	ldr	r4, [pc, #320]	@ (10000b68 <pico_boot_calibration_run+0x4a4>)
10000a26:	4951      	ldr	r1, [pc, #324]	@ (10000b6c <pico_boot_calibration_run+0x4a8>)
10000a28:	4620      	mov	r0, r4
10000a2a:	f002 f865 	bl	10002af8 <pio_add_program>
10000a2e:	2107      	movs	r1, #7
10000a30:	4606      	mov	r6, r0
10000a32:	200e      	movs	r0, #14
10000a34:	f000 fcfc 	bl	10001430 <gpio_set_function>
10000a38:	2107      	movs	r1, #7
10000a3a:	200c      	movs	r0, #12
10000a3c:	f000 fcf8 	bl	10001430 <gpio_set_function>
10000a40:	2107      	movs	r1, #7
10000a42:	200d      	movs	r0, #13
10000a44:	f000 fcf4 	bl	10001430 <gpio_set_function>
10000a48:	f44f 3380 	mov.w	r3, #65536	@ 0x10000
10000a4c:	1df2      	adds	r2, r6, #7
10000a4e:	930c      	str	r3, [sp, #48]	@ 0x30
10000a50:	01f3      	lsls	r3, r6, #7
10000a52:	ea43 3302 	orr.w	r3, r3, r2, lsl #12
10000a56:	4632      	mov	r2, r6
10000a58:	2601      	movs	r6, #1
10000a5a:	f023 43c0 	bic.w	r3, r3, #1610612736	@ 0x60000000
10000a5e:	4844      	ldr	r0, [pc, #272]	@ (10000b70 <pico_boot_calibration_run+0x4ac>)
10000a60:	930d      	str	r3, [sp, #52]	@ 0x34
10000a62:	4b44      	ldr	r3, [pc, #272]	@ (10000b74 <pico_boot_calibration_run+0x4b0>)
10000a64:	f10d 0930 	add.w	r9, sp, #48	@ 0x30
10000a68:	e9cd 300e 	strd	r3, r0, [sp, #56]	@ 0x38
10000a6c:	4639      	mov	r1, r7
10000a6e:	464b      	mov	r3, r9
10000a70:	4620      	mov	r0, r4
10000a72:	f002 f911 	bl	10002c98 <pio_sm_init>
10000a76:	220e      	movs	r2, #14
10000a78:	4633      	mov	r3, r6
10000a7a:	4639      	mov	r1, r7
10000a7c:	4620      	mov	r0, r4
10000a7e:	9600      	str	r6, [sp, #0]
10000a80:	f002 f8c4 	bl	10002c0c <pio_sm_set_consecutive_pindirs>
10000a84:	4639      	mov	r1, r7
10000a86:	2302      	movs	r3, #2
10000a88:	220c      	movs	r2, #12
10000a8a:	4620      	mov	r0, r4
10000a8c:	9600      	str	r6, [sp, #0]
10000a8e:	f002 f8bd 	bl	10002c0c <pio_sm_set_consecutive_pindirs>
10000a92:	f24e 014e 	movw	r1, #57422	@ 0xe04e
10000a96:	f8d4 30dc 	ldr.w	r3, [r4, #220]	@ 0xdc
10000a9a:	4a37      	ldr	r2, [pc, #220]	@ (10000b78 <pico_boot_calibration_run+0x4b4>)
10000a9c:	2005      	movs	r0, #5
10000a9e:	4013      	ands	r3, r2
10000aa0:	f043 6380 	orr.w	r3, r3, #67108864	@ 0x4000000
10000aa4:	f443 73e0 	orr.w	r3, r3, #448	@ 0x1c0
10000aa8:	f8c4 30dc 	str.w	r3, [r4, #220]	@ 0xdc
10000aac:	f8d4 30dc 	ldr.w	r3, [r4, #220]	@ 0xdc
10000ab0:	4013      	ands	r3, r2
10000ab2:	f043 6300 	orr.w	r3, r3, #134217728	@ 0x8000000
10000ab6:	f443 73c0 	orr.w	r3, r3, #384	@ 0x180
10000aba:	f8c4 30dc 	str.w	r3, [r4, #220]	@ 0xdc
10000abe:	f8c4 10d8 	str.w	r1, [r4, #216]	@ 0xd8
10000ac2:	f001 fae1 	bl	10002088 <clock_get_hz>
10000ac6:	ee07 0a10 	vmov	s14, r0
10000aca:	ed9f 6a2c 	vldr	s12, [pc, #176]	@ 10000b7c <pico_boot_calibration_run+0x4b8>
10000ace:	eeb8 7a47 	vcvt.f32.u32	s14, s14
10000ad2:	eddf 6a2b 	vldr	s13, [pc, #172]	@ 10000b80 <pico_boot_calibration_run+0x4bc>
10000ad6:	eec7 7a06 	vdiv.f32	s15, s14, s12
10000ada:	ee77 7aa6 	vadd.f32	s15, s15, s13
10000ade:	eebc 7ae7 	vcvt.u32.f32	s14, s15
10000ae2:	ee17 3a10 	vmov	r3, s14
10000ae6:	b29a      	uxth	r2, r3
10000ae8:	b1e2      	cbz	r2, 10000b24 <pico_boot_calibration_run+0x460>
10000aea:	ee07 2a10 	vmov	s14, r2
10000aee:	eeb8 7a47 	vcvt.f32.u32	s14, s14
10000af2:	eddf 6a24 	vldr	s13, [pc, #144]	@ 10000b84 <pico_boot_calibration_run+0x4c0>
10000af6:	ee77 7ac7 	vsub.f32	s15, s15, s14
10000afa:	ee67 7aa6 	vmul.f32	s15, s15, s13
10000afe:	eefc 7ae7 	vcvt.u32.f32	s15, s15
10000b02:	edcd 7a03 	vstr	s15, [sp, #12]
10000b06:	f89d 300c 	ldrb.w	r3, [sp, #12]
10000b0a:	021b      	lsls	r3, r3, #8
10000b0c:	2101      	movs	r1, #1
10000b0e:	ea43 4302 	orr.w	r3, r3, r2, lsl #16
10000b12:	4a15      	ldr	r2, [pc, #84]	@ (10000b68 <pico_boot_calibration_run+0x4a4>)
10000b14:	f8c2 30c8 	str.w	r3, [r2, #200]	@ 0xc8
10000b18:	6813      	ldr	r3, [r2, #0]
10000b1a:	430b      	orrs	r3, r1
10000b1c:	6013      	str	r3, [r2, #0]
10000b1e:	4b1a      	ldr	r3, [pc, #104]	@ (10000b88 <pico_boot_calibration_run+0x4c4>)
10000b20:	7019      	strb	r1, [r3, #0]
10000b22:	e5f9      	b.n	10000718 <pico_boot_calibration_run+0x54>
10000b24:	4613      	mov	r3, r2
10000b26:	e7f1      	b.n	10000b0c <pico_boot_calibration_run+0x448>
10000b28:	490f      	ldr	r1, [pc, #60]	@ (10000b68 <pico_boot_calibration_run+0x4a4>)
10000b2a:	684b      	ldr	r3, [r1, #4]
10000b2c:	f413 3380 	ands.w	r3, r3, #65536	@ 0x10000
10000b30:	d1fb      	bne.n	10000b2a <pico_boot_calibration_run+0x466>
10000b32:	3a01      	subs	r2, #1
10000b34:	610b      	str	r3, [r1, #16]
10000b36:	d1f8      	bne.n	10000b2a <pico_boot_calibration_run+0x466>
10000b38:	4e0b      	ldr	r6, [pc, #44]	@ (10000b68 <pico_boot_calibration_run+0x4a4>)
10000b3a:	68ab      	ldr	r3, [r5, #8]
10000b3c:	4798      	blx	r3
10000b3e:	4b12      	ldr	r3, [pc, #72]	@ (10000b88 <pico_boot_calibration_run+0x4c4>)
10000b40:	4682      	mov	sl, r0
10000b42:	781b      	ldrb	r3, [r3, #0]
10000b44:	bb10      	cbnz	r0, 10000b8c <pico_boot_calibration_run+0x4c8>
10000b46:	22b0      	movs	r2, #176	@ 0xb0
10000b48:	b92b      	cbnz	r3, 10000b56 <pico_boot_calibration_run+0x492>
10000b4a:	3a01      	subs	r2, #1
10000b4c:	d1fd      	bne.n	10000b4a <pico_boot_calibration_run+0x486>
10000b4e:	e7f4      	b.n	10000b3a <pico_boot_calibration_run+0x476>
10000b50:	3a01      	subs	r2, #1
10000b52:	6133      	str	r3, [r6, #16]
10000b54:	d0f1      	beq.n	10000b3a <pico_boot_calibration_run+0x476>
10000b56:	6873      	ldr	r3, [r6, #4]
10000b58:	f413 3380 	ands.w	r3, r3, #65536	@ 0x10000
10000b5c:	d0f8      	beq.n	10000b50 <pico_boot_calibration_run+0x48c>
10000b5e:	6873      	ldr	r3, [r6, #4]
10000b60:	f413 3380 	ands.w	r3, r3, #65536	@ 0x10000
10000b64:	d1f7      	bne.n	10000b56 <pico_boot_calibration_run+0x492>
10000b66:	e7f3      	b.n	10000b50 <pico_boot_calibration_run+0x48c>
10000b68:	50300000 	.word	0x50300000
10000b6c:	10002f5c 	.word	0x10002f5c
10000b70:	4010300e 	.word	0x4010300e
10000b74:	40060000 	.word	0x40060000
10000b78:	e3fffc1f 	.word	0xe3fffc1f
10000b7c:	49ac4400 	.word	0x49ac4400
10000b80:	3b000000 	.word	0x3b000000
10000b84:	43800000 	.word	0x43800000
10000b88:	20000815 	.word	0x20000815
10000b8c:	f240 2295 	movw	r2, #661	@ 0x295
10000b90:	2b00      	cmp	r3, #0
10000b92:	f040 8134 	bne.w	10000dfe <pico_boot_calibration_run+0x73a>
10000b96:	3a01      	subs	r2, #1
10000b98:	d1fd      	bne.n	10000b96 <pico_boot_calibration_run+0x4d2>
10000b9a:	68eb      	ldr	r3, [r5, #12]
10000b9c:	f44f 60fa 	mov.w	r0, #2000	@ 0x7d0
10000ba0:	4798      	blx	r3
10000ba2:	682b      	ldr	r3, [r5, #0]
10000ba4:	2018      	movs	r0, #24
10000ba6:	4798      	blx	r3
10000ba8:	4bac      	ldr	r3, [pc, #688]	@ (10000e5c <pico_boot_calibration_run+0x798>)
10000baa:	f642 3111 	movw	r1, #11025	@ 0x2b11
10000bae:	781b      	ldrb	r3, [r3, #0]
10000bb0:	2b00      	cmp	r3, #0
10000bb2:	f040 8108 	bne.w	10000dc6 <pico_boot_calibration_run+0x702>
10000bb6:	3901      	subs	r1, #1
10000bb8:	d1fd      	bne.n	10000bb6 <pico_boot_calibration_run+0x4f2>
10000bba:	f44f 7980 	mov.w	r9, #256	@ 0x100
10000bbe:	4fa8      	ldr	r7, [pc, #672]	@ (10000e60 <pico_boot_calibration_run+0x79c>)
10000bc0:	4aa8      	ldr	r2, [pc, #672]	@ (10000e64 <pico_boot_calibration_run+0x7a0>)
10000bc2:	683b      	ldr	r3, [r7, #0]
10000bc4:	2014      	movs	r0, #20
10000bc6:	f403 4370 	and.w	r3, r3, #61440	@ 0xf000
10000bca:	2100      	movs	r1, #0
10000bcc:	6013      	str	r3, [r2, #0]
10000bce:	46a8      	mov	r8, r5
10000bd0:	f001 f878 	bl	10001cc4 <sleep_us>
10000bd4:	2404      	movs	r4, #4
10000bd6:	464d      	mov	r5, r9
10000bd8:	4ea3      	ldr	r6, [pc, #652]	@ (10000e68 <pico_boot_calibration_run+0x7a4>)
10000bda:	6034      	str	r4, [r6, #0]
10000bdc:	683b      	ldr	r3, [r7, #0]
10000bde:	05db      	lsls	r3, r3, #23
10000be0:	d5fc      	bpl.n	10000bdc <pico_boot_calibration_run+0x518>
10000be2:	3d01      	subs	r5, #1
10000be4:	2050      	movs	r0, #80	@ 0x50
10000be6:	2100      	movs	r1, #0
10000be8:	b2ad      	uxth	r5, r5
10000bea:	687b      	ldr	r3, [r7, #4]
10000bec:	f001 f86a 	bl	10001cc4 <sleep_us>
10000bf0:	2d00      	cmp	r5, #0
10000bf2:	d1f2      	bne.n	10000bda <pico_boot_calibration_run+0x516>
10000bf4:	4b99      	ldr	r3, [pc, #612]	@ (10000e5c <pico_boot_calibration_run+0x798>)
10000bf6:	4645      	mov	r5, r8
10000bf8:	781b      	ldrb	r3, [r3, #0]
10000bfa:	f240 61e4 	movw	r1, #1764	@ 0x6e4
10000bfe:	2b00      	cmp	r3, #0
10000c00:	f040 80d8 	bne.w	10000db4 <pico_boot_calibration_run+0x6f0>
10000c04:	3901      	subs	r1, #1
10000c06:	d1fd      	bne.n	10000c04 <pico_boot_calibration_run+0x540>
10000c08:	2300      	movs	r3, #0
10000c0a:	f04f 0801 	mov.w	r8, #1
10000c0e:	9303      	str	r3, [sp, #12]
10000c10:	4b96      	ldr	r3, [pc, #600]	@ (10000e6c <pico_boot_calibration_run+0x7a8>)
10000c12:	eddf 8a97 	vldr	s17, [pc, #604]	@ 10000e70 <pico_boot_calibration_run+0x7ac>
10000c16:	e9cd 3a06 	strd	r3, sl, [sp, #24]
10000c1a:	46c2      	mov	sl, r8
10000c1c:	46a8      	mov	r8, r5
10000c1e:	fa5f f38a 	uxtb.w	r3, sl
10000c22:	ee07 3a90 	vmov	s15, r3
10000c26:	eef8 7a67 	vcvt.f32.u32	s15, s15
10000c2a:	ee67 7a88 	vmul.f32	s15, s15, s16
10000c2e:	eef5 7ac0 	vcmpe.f32	s15, #0.0
10000c32:	eeb6 7a00 	vmov.f32	s14, #96	@ 0x3f000000  0.5
10000c36:	eef1 fa10 	vmrs	APSR_nzcv, fpscr
10000c3a:	bfac      	ite	ge
10000c3c:	ee77 7a87 	vaddge.f32	s15, s15, s14
10000c40:	ee77 7ac7 	vsublt.f32	s15, s15, s14
10000c44:	eefd 7ae7 	vcvt.s32.f32	s15, s15
10000c48:	ee17 3a90 	vmov	r3, s15
10000c4c:	f5b3 4f00 	cmp.w	r3, #32768	@ 0x8000
10000c50:	f280 80f0 	bge.w	10000e34 <pico_boot_calibration_run+0x770>
10000c54:	4987      	ldr	r1, [pc, #540]	@ (10000e74 <pico_boot_calibration_run+0x7b0>)
10000c56:	428b      	cmp	r3, r1
10000c58:	f2c0 811a 	blt.w	10000e90 <pico_boot_calibration_run+0x7cc>
10000c5c:	ea4f 4b03 	mov.w	fp, r3, lsl #16
10000c60:	fa1b fb83 	uxtah	fp, fp, r3
10000c64:	b21b      	sxth	r3, r3
10000c66:	9304      	str	r3, [sp, #16]
10000c68:	9a06      	ldr	r2, [sp, #24]
10000c6a:	f8d8 3000 	ldr.w	r3, [r8]
10000c6e:	f852 0f04 	ldr.w	r0, [r2, #4]!
10000c72:	9206      	str	r2, [sp, #24]
10000c74:	4798      	blx	r3
10000c76:	4b79      	ldr	r3, [pc, #484]	@ (10000e5c <pico_boot_calibration_run+0x798>)
10000c78:	f642 3011 	movw	r0, #11025	@ 0x2b11
10000c7c:	781b      	ldrb	r3, [r3, #0]
10000c7e:	2b00      	cmp	r3, #0
10000c80:	f040 80b3 	bne.w	10000dea <pico_boot_calibration_run+0x726>
10000c84:	3801      	subs	r0, #1
10000c86:	d1fd      	bne.n	10000c84 <pico_boot_calibration_run+0x5c0>
10000c88:	4c75      	ldr	r4, [pc, #468]	@ (10000e60 <pico_boot_calibration_run+0x79c>)
10000c8a:	4976      	ldr	r1, [pc, #472]	@ (10000e64 <pico_boot_calibration_run+0x7a0>)
10000c8c:	6823      	ldr	r3, [r4, #0]
10000c8e:	2014      	movs	r0, #20
10000c90:	f403 4370 	and.w	r3, r3, #61440	@ 0xf000
10000c94:	600b      	str	r3, [r1, #0]
10000c96:	2100      	movs	r1, #0
10000c98:	f001 f814 	bl	10001cc4 <sleep_us>
10000c9c:	f04f 0900 	mov.w	r9, #0
10000ca0:	f44f 7680 	mov.w	r6, #256	@ 0x100
10000ca4:	2504      	movs	r5, #4
10000ca6:	4f70      	ldr	r7, [pc, #448]	@ (10000e68 <pico_boot_calibration_run+0x7a4>)
10000ca8:	603d      	str	r5, [r7, #0]
10000caa:	6823      	ldr	r3, [r4, #0]
10000cac:	05da      	lsls	r2, r3, #23
10000cae:	d5fc      	bpl.n	10000caa <pico_boot_calibration_run+0x5e6>
10000cb0:	6863      	ldr	r3, [r4, #4]
10000cb2:	3e01      	subs	r6, #1
10000cb4:	2050      	movs	r0, #80	@ 0x50
10000cb6:	2100      	movs	r1, #0
10000cb8:	b2b6      	uxth	r6, r6
10000cba:	fa19 f983 	uxtah	r9, r9, r3
10000cbe:	f001 f801 	bl	10001cc4 <sleep_us>
10000cc2:	2e00      	cmp	r6, #0
10000cc4:	d1f0      	bne.n	10000ca8 <pico_boot_calibration_run+0x5e4>
10000cc6:	4b65      	ldr	r3, [pc, #404]	@ (10000e5c <pico_boot_calibration_run+0x798>)
10000cc8:	f240 65e4 	movw	r5, #1764	@ 0x6e4
10000ccc:	7818      	ldrb	r0, [r3, #0]
10000cce:	2800      	cmp	r0, #0
10000cd0:	f040 8082 	bne.w	10000dd8 <pico_boot_calibration_run+0x714>
10000cd4:	3d01      	subs	r5, #1
10000cd6:	d1fd      	bne.n	10000cd4 <pico_boot_calibration_run+0x610>
10000cd8:	9a05      	ldr	r2, [sp, #20]
10000cda:	edd2 6a05 	vldr	s13, [r2, #20]
10000cde:	eef5 6ac0 	vcmpe.f32	s13, #0.0
10000ce2:	eef1 fa10 	vmrs	APSR_nzcv, fpscr
10000ce6:	d927      	bls.n	10000d38 <pico_boot_calibration_run+0x674>
10000ce8:	f109 0380 	add.w	r3, r9, #128	@ 0x80
10000cec:	f3c3 230f 	ubfx	r3, r3, #8, #16
10000cf0:	ee07 3a90 	vmov	s15, r3
10000cf4:	ed92 7a08 	vldr	s14, [r2, #32]
10000cf8:	eef8 7a67 	vcvt.f32.u32	s15, s15
10000cfc:	ee77 7a67 	vsub.f32	s15, s14, s15
10000d00:	ed9f 6a5d 	vldr	s12, [pc, #372]	@ 10000e78 <pico_boot_calibration_run+0x7b4>
10000d04:	ee87 7aa6 	vdiv.f32	s14, s15, s13
10000d08:	eeb4 7ac6 	vcmpe.f32	s14, s12
10000d0c:	eef1 fa10 	vmrs	APSR_nzcv, fpscr
10000d10:	dd12      	ble.n	10000d38 <pico_boot_calibration_run+0x674>
10000d12:	eddf 7a5a 	vldr	s15, [pc, #360]	@ 10000e7c <pico_boot_calibration_run+0x7b8>
10000d16:	eeb4 7ae7 	vcmpe.f32	s14, s15
10000d1a:	eef1 fa10 	vmrs	APSR_nzcv, fpscr
10000d1e:	d50b      	bpl.n	10000d38 <pico_boot_calibration_run+0x674>
10000d20:	eddd 7a04 	vldr	s15, [sp, #16]
10000d24:	eef8 7ae7 	vcvt.f32.s32	s15, s15
10000d28:	eec7 6a87 	vdiv.f32	s13, s15, s14
10000d2c:	ee78 8aa6 	vadd.f32	s17, s17, s13
10000d30:	9b03      	ldr	r3, [sp, #12]
10000d32:	3301      	adds	r3, #1
10000d34:	b2db      	uxtb	r3, r3
10000d36:	9303      	str	r3, [sp, #12]
10000d38:	f10a 0a01 	add.w	sl, sl, #1
10000d3c:	f1ba 0f06 	cmp.w	sl, #6
10000d40:	f47f af6d 	bne.w	10000c1e <pico_boot_calibration_run+0x55a>
10000d44:	4645      	mov	r5, r8
10000d46:	f241 5288 	movw	r2, #5512	@ 0x1588
10000d4a:	f8dd a01c 	ldr.w	sl, [sp, #28]
10000d4e:	2800      	cmp	r0, #0
10000d50:	d15e      	bne.n	10000e10 <pico_boot_calibration_run+0x74c>
10000d52:	3a01      	subs	r2, #1
10000d54:	d1fd      	bne.n	10000d52 <pico_boot_calibration_run+0x68e>
10000d56:	9b03      	ldr	r3, [sp, #12]
10000d58:	2b00      	cmp	r3, #0
10000d5a:	d064      	beq.n	10000e26 <pico_boot_calibration_run+0x762>
10000d5c:	ee07 3a90 	vmov	s15, r3
10000d60:	eef8 7a67 	vcvt.f32.u32	s15, s15
10000d64:	eddf 6a46 	vldr	s13, [pc, #280]	@ 10000e80 <pico_boot_calibration_run+0x7bc>
10000d68:	ee88 7aa7 	vdiv.f32	s14, s17, s15
10000d6c:	eeb4 7ae6 	vcmpe.f32	s14, s13
10000d70:	eef1 fa10 	vmrs	APSR_nzcv, fpscr
10000d74:	db57      	blt.n	10000e26 <pico_boot_calibration_run+0x762>
10000d76:	eddf 7a43 	vldr	s15, [pc, #268]	@ 10000e84 <pico_boot_calibration_run+0x7c0>
10000d7a:	eeb4 7ae7 	vcmpe.f32	s14, s15
10000d7e:	eef1 fa10 	vmrs	APSR_nzcv, fpscr
10000d82:	d850      	bhi.n	10000e26 <pico_boot_calibration_run+0x762>
10000d84:	2300      	movs	r3, #0
10000d86:	9a05      	ldr	r2, [sp, #20]
10000d88:	ed82 7a07 	vstr	s14, [r2, #28]
10000d8c:	4610      	mov	r0, r2
10000d8e:	6293      	str	r3, [r2, #40]	@ 0x28
10000d90:	f7ff fbc4 	bl	1000051c <pico_boot_config_save>
10000d94:	2364      	movs	r3, #100	@ 0x64
10000d96:	22a0      	movs	r2, #160	@ 0xa0
10000d98:	2103      	movs	r1, #3
10000d9a:	f04f 50c0 	mov.w	r0, #402653184	@ 0x18000000
10000d9e:	686d      	ldr	r5, [r5, #4]
10000da0:	47a8      	blx	r5
10000da2:	4b2e      	ldr	r3, [pc, #184]	@ (10000e5c <pico_boot_calibration_run+0x798>)
10000da4:	f241 123a 	movw	r2, #4410	@ 0x113a
10000da8:	781b      	ldrb	r3, [r3, #0]
10000daa:	2b00      	cmp	r3, #0
10000dac:	d148      	bne.n	10000e40 <pico_boot_calibration_run+0x77c>
10000dae:	3a01      	subs	r2, #1
10000db0:	d1fd      	bne.n	10000dae <pico_boot_calibration_run+0x6ea>
10000db2:	e611      	b.n	100009d8 <pico_boot_calibration_run+0x314>
10000db4:	4a34      	ldr	r2, [pc, #208]	@ (10000e88 <pico_boot_calibration_run+0x7c4>)
10000db6:	6853      	ldr	r3, [r2, #4]
10000db8:	f413 3380 	ands.w	r3, r3, #65536	@ 0x10000
10000dbc:	d1fb      	bne.n	10000db6 <pico_boot_calibration_run+0x6f2>
10000dbe:	3901      	subs	r1, #1
10000dc0:	6113      	str	r3, [r2, #16]
10000dc2:	d1f8      	bne.n	10000db6 <pico_boot_calibration_run+0x6f2>
10000dc4:	e720      	b.n	10000c08 <pico_boot_calibration_run+0x544>
10000dc6:	4a30      	ldr	r2, [pc, #192]	@ (10000e88 <pico_boot_calibration_run+0x7c4>)
10000dc8:	6853      	ldr	r3, [r2, #4]
10000dca:	f413 3380 	ands.w	r3, r3, #65536	@ 0x10000
10000dce:	d1fb      	bne.n	10000dc8 <pico_boot_calibration_run+0x704>
10000dd0:	3901      	subs	r1, #1
10000dd2:	6113      	str	r3, [r2, #16]
10000dd4:	d1f8      	bne.n	10000dc8 <pico_boot_calibration_run+0x704>
10000dd6:	e6f0      	b.n	10000bba <pico_boot_calibration_run+0x4f6>
10000dd8:	465a      	mov	r2, fp
10000dda:	4c2b      	ldr	r4, [pc, #172]	@ (10000e88 <pico_boot_calibration_run+0x7c4>)
10000ddc:	6863      	ldr	r3, [r4, #4]
10000dde:	03db      	lsls	r3, r3, #15
10000de0:	d4fc      	bmi.n	10000ddc <pico_boot_calibration_run+0x718>
10000de2:	3d01      	subs	r5, #1
10000de4:	6122      	str	r2, [r4, #16]
10000de6:	d1f9      	bne.n	10000ddc <pico_boot_calibration_run+0x718>
10000de8:	e776      	b.n	10000cd8 <pico_boot_calibration_run+0x614>
10000dea:	465a      	mov	r2, fp
10000dec:	4926      	ldr	r1, [pc, #152]	@ (10000e88 <pico_boot_calibration_run+0x7c4>)
10000dee:	684b      	ldr	r3, [r1, #4]
10000df0:	03dc      	lsls	r4, r3, #15
10000df2:	d4fc      	bmi.n	10000dee <pico_boot_calibration_run+0x72a>
10000df4:	3801      	subs	r0, #1
10000df6:	610a      	str	r2, [r1, #16]
10000df8:	d1f9      	bne.n	10000dee <pico_boot_calibration_run+0x72a>
10000dfa:	4693      	mov	fp, r2
10000dfc:	e744      	b.n	10000c88 <pico_boot_calibration_run+0x5c4>
10000dfe:	4922      	ldr	r1, [pc, #136]	@ (10000e88 <pico_boot_calibration_run+0x7c4>)
10000e00:	684b      	ldr	r3, [r1, #4]
10000e02:	f413 3380 	ands.w	r3, r3, #65536	@ 0x10000
10000e06:	d1fb      	bne.n	10000e00 <pico_boot_calibration_run+0x73c>
10000e08:	3a01      	subs	r2, #1
10000e0a:	610b      	str	r3, [r1, #16]
10000e0c:	d1f8      	bne.n	10000e00 <pico_boot_calibration_run+0x73c>
10000e0e:	e6c4      	b.n	10000b9a <pico_boot_calibration_run+0x4d6>
10000e10:	491d      	ldr	r1, [pc, #116]	@ (10000e88 <pico_boot_calibration_run+0x7c4>)
10000e12:	684b      	ldr	r3, [r1, #4]
10000e14:	f413 3380 	ands.w	r3, r3, #65536	@ 0x10000
10000e18:	d1fb      	bne.n	10000e12 <pico_boot_calibration_run+0x74e>
10000e1a:	3a01      	subs	r2, #1
10000e1c:	610b      	str	r3, [r1, #16]
10000e1e:	d1f8      	bne.n	10000e12 <pico_boot_calibration_run+0x74e>
10000e20:	9b03      	ldr	r3, [sp, #12]
10000e22:	2b00      	cmp	r3, #0
10000e24:	d19a      	bne.n	10000d5c <pico_boot_calibration_run+0x698>
10000e26:	2378      	movs	r3, #120	@ 0x78
10000e28:	2106      	movs	r1, #6
10000e2a:	461a      	mov	r2, r3
10000e2c:	686c      	ldr	r4, [r5, #4]
10000e2e:	4817      	ldr	r0, [pc, #92]	@ (10000e8c <pico_boot_calibration_run+0x7c8>)
10000e30:	47a0      	blx	r4
10000e32:	e5cf      	b.n	100009d4 <pico_boot_calibration_run+0x310>
10000e34:	f647 73ff 	movw	r3, #32767	@ 0x7fff
10000e38:	f06f 2b80 	mvn.w	fp, #2147516416	@ 0x80008000
10000e3c:	9304      	str	r3, [sp, #16]
10000e3e:	e713      	b.n	10000c68 <pico_boot_calibration_run+0x5a4>
10000e40:	4911      	ldr	r1, [pc, #68]	@ (10000e88 <pico_boot_calibration_run+0x7c4>)
10000e42:	684b      	ldr	r3, [r1, #4]
10000e44:	f413 3380 	ands.w	r3, r3, #65536	@ 0x10000
10000e48:	d1fb      	bne.n	10000e42 <pico_boot_calibration_run+0x77e>
10000e4a:	3a01      	subs	r2, #1
10000e4c:	610b      	str	r3, [r1, #16]
10000e4e:	d1f8      	bne.n	10000e42 <pico_boot_calibration_run+0x77e>
10000e50:	4650      	mov	r0, sl
10000e52:	b011      	add	sp, #68	@ 0x44
10000e54:	ecbd 8b02 	vpop	{d8}
10000e58:	e8bd 8ff0 	ldmia.w	sp!, {r4, r5, r6, r7, r8, r9, sl, fp, pc}
10000e5c:	20000815 	.word	0x20000815
10000e60:	400a0000 	.word	0x400a0000
10000e64:	400a1000 	.word	0x400a1000
10000e68:	400a2000 	.word	0x400a2000
10000e6c:	10002f44 	.word	0x10002f44
10000e70:	00000000 	.word	0x00000000
10000e74:	ffff8001 	.word	0xffff8001
10000e78:	3e4ccccd 	.word	0x3e4ccccd
10000e7c:	40b9999a 	.word	0x40b9999a
10000e80:	457a0000 	.word	0x457a0000
10000e84:	460ca000 	.word	0x460ca000
10000e88:	50300000 	.word	0x50300000
10000e8c:	00121200 	.word	0x00121200
10000e90:	f8df b004 	ldr.w	fp, [pc, #4]	@ 10000e98 <pico_boot_calibration_run+0x7d4>
10000e94:	9104      	str	r1, [sp, #16]
10000e96:	e6e7      	b.n	10000c68 <pico_boot_calibration_run+0x5a4>
10000e98:	80018001 	.word	0x80018001

10000e9c <button_pressed>:
10000e9c:	f04f 4350 	mov.w	r3, #3489660928	@ 0xd0000000
10000ea0:	6858      	ldr	r0, [r3, #4]
10000ea2:	f3c0 0080 	ubfx	r0, r0, #2, #1
10000ea6:	f080 0001 	eor.w	r0, r0, #1
10000eaa:	f000 0001 	and.w	r0, r0, #1
10000eae:	4770      	bx	lr

10000eb0 <app_vector_valid>:
10000eb0:	b410      	push	{r4}
10000eb2:	6801      	ldr	r1, [r0, #0]
10000eb4:	6904      	ldr	r4, [r0, #16]
10000eb6:	190b      	adds	r3, r1, r4
10000eb8:	f103 5380 	add.w	r3, r3, #268435456	@ 0x10000000
10000ebc:	681a      	ldr	r2, [r3, #0]
10000ebe:	f102 4260 	add.w	r2, r2, #3758096384	@ 0xe0000000
10000ec2:	f5b2 2f02 	cmp.w	r2, #532480	@ 0x82000
10000ec6:	d812      	bhi.n	10000eee <app_vector_valid+0x3e>
10000ec8:	6842      	ldr	r2, [r0, #4]
10000eca:	4294      	cmp	r4, r2
10000ecc:	d20f      	bcs.n	10000eee <app_vector_valid+0x3e>
10000ece:	6858      	ldr	r0, [r3, #4]
10000ed0:	f101 5380 	add.w	r3, r1, #268435456	@ 0x10000000
10000ed4:	4283      	cmp	r3, r0
10000ed6:	d80a      	bhi.n	10000eee <app_vector_valid+0x3e>
10000ed8:	4411      	add	r1, r2
10000eda:	f101 5180 	add.w	r1, r1, #268435456	@ 0x10000000
10000ede:	4281      	cmp	r1, r0
10000ee0:	bf94      	ite	ls
10000ee2:	2000      	movls	r0, #0
10000ee4:	f000 0001 	andhi.w	r0, r0, #1
10000ee8:	f85d 4b04 	ldr.w	r4, [sp], #4
10000eec:	4770      	bx	lr
10000eee:	2000      	movs	r0, #0
10000ef0:	f85d 4b04 	ldr.w	r4, [sp], #4
10000ef4:	4770      	bx	lr
10000ef6:	bf00      	nop

10000ef8 <wait_button_release>:
10000ef8:	b570      	push	{r4, r5, r6, lr}
10000efa:	4606      	mov	r6, r0
10000efc:	f001 f840 	bl	10001f80 <time_us_64>
10000f00:	f44f 737a 	mov.w	r3, #1000	@ 0x3e8
10000f04:	4604      	mov	r4, r0
10000f06:	f04f 30ff 	mov.w	r0, #4294967295	@ 0xffffffff
10000f0a:	fbe6 4103 	umlal	r4, r1, r6, r3
10000f0e:	f06f 4200 	mvn.w	r2, #2147483648	@ 0x80000000
10000f12:	f04f 4650 	mov.w	r6, #3489660928	@ 0xd0000000
10000f16:	42a0      	cmp	r0, r4
10000f18:	eb72 0301 	sbcs.w	r3, r2, r1
10000f1c:	6873      	ldr	r3, [r6, #4]
10000f1e:	bf3a      	itte	cc
10000f20:	4604      	movcc	r4, r0
10000f22:	4615      	movcc	r5, r2
10000f24:	460d      	movcs	r5, r1
10000f26:	075a      	lsls	r2, r3, #29
10000f28:	d411      	bmi.n	10000f4e <wait_button_release+0x56>
10000f2a:	e005      	b.n	10000f38 <wait_button_release+0x40>
10000f2c:	2005      	movs	r0, #5
10000f2e:	f000 ff35 	bl	10001d9c <sleep_ms>
10000f32:	6873      	ldr	r3, [r6, #4]
10000f34:	075b      	lsls	r3, r3, #29
10000f36:	d40a      	bmi.n	10000f4e <wait_button_release+0x56>
10000f38:	f001 f822 	bl	10001f80 <time_us_64>
10000f3c:	1a20      	subs	r0, r4, r0
10000f3e:	eb65 0101 	sbc.w	r1, r5, r1
10000f42:	2801      	cmp	r0, #1
10000f44:	f171 0100 	sbcs.w	r1, r1, #0
10000f48:	daf0      	bge.n	10000f2c <wait_button_release+0x34>
10000f4a:	2000      	movs	r0, #0
10000f4c:	bd70      	pop	{r4, r5, r6, pc}
10000f4e:	201e      	movs	r0, #30
10000f50:	f000 ff24 	bl	10001d9c <sleep_ms>
10000f54:	2001      	movs	r0, #1
10000f56:	bd70      	pop	{r4, r5, r6, pc}

10000f58 <led_set.part.0>:
10000f58:	4a02      	ldr	r2, [pc, #8]	@ (10000f64 <led_set.part.0+0xc>)
10000f5a:	6853      	ldr	r3, [r2, #4]
10000f5c:	03db      	lsls	r3, r3, #15
10000f5e:	d4fc      	bmi.n	10000f5a <led_set.part.0+0x2>
10000f60:	6110      	str	r0, [r2, #16]
10000f62:	4770      	bx	lr
10000f64:	50200000 	.word	0x50200000

10000f68 <led_blink>:
10000f68:	b329      	cbz	r1, 10000fb6 <led_blink+0x4e>
10000f6a:	e92d 47f0 	stmdb	sp!, {r4, r5, r6, r7, r8, r9, sl, lr}
10000f6e:	4681      	mov	r9, r0
10000f70:	460e      	mov	r6, r1
10000f72:	4617      	mov	r7, r2
10000f74:	4698      	mov	r8, r3
10000f76:	2400      	movs	r4, #0
10000f78:	4d0f      	ldr	r5, [pc, #60]	@ (10000fb8 <led_blink+0x50>)
10000f7a:	f8df a040 	ldr.w	sl, [pc, #64]	@ 10000fbc <led_blink+0x54>
10000f7e:	782b      	ldrb	r3, [r5, #0]
10000f80:	b12b      	cbz	r3, 10000f8e <led_blink+0x26>
10000f82:	f8da 3004 	ldr.w	r3, [sl, #4]
10000f86:	03db      	lsls	r3, r3, #15
10000f88:	d4fb      	bmi.n	10000f82 <led_blink+0x1a>
10000f8a:	f8ca 9010 	str.w	r9, [sl, #16]
10000f8e:	4638      	mov	r0, r7
10000f90:	f000 ff04 	bl	10001d9c <sleep_ms>
10000f94:	782b      	ldrb	r3, [r5, #0]
10000f96:	b133      	cbz	r3, 10000fa6 <led_blink+0x3e>
10000f98:	f8da 3004 	ldr.w	r3, [sl, #4]
10000f9c:	f413 3380 	ands.w	r3, r3, #65536	@ 0x10000
10000fa0:	d1fa      	bne.n	10000f98 <led_blink+0x30>
10000fa2:	f8ca 3010 	str.w	r3, [sl, #16]
10000fa6:	4640      	mov	r0, r8
10000fa8:	3401      	adds	r4, #1
10000faa:	f000 fef7 	bl	10001d9c <sleep_ms>
10000fae:	42a6      	cmp	r6, r4
10000fb0:	d1e5      	bne.n	10000f7e <led_blink+0x16>
10000fb2:	e8bd 87f0 	ldmia.w	sp!, {r4, r5, r6, r7, r8, r9, sl, pc}
10000fb6:	4770      	bx	lr
10000fb8:	20000816 	.word	0x20000816
10000fbc:	50200000 	.word	0x50200000

10000fc0 <slot_has_app>:
10000fc0:	7b43      	ldrb	r3, [r0, #13]
10000fc2:	428b      	cmp	r3, r1
10000fc4:	d929      	bls.n	1000101a <slot_has_app+0x5a>
10000fc6:	eb01 0181 	add.w	r1, r1, r1, lsl #2
10000fca:	eb00 0381 	add.w	r3, r0, r1, lsl #2
10000fce:	6bd8      	ldr	r0, [r3, #60]	@ 0x3c
10000fd0:	f010 0001 	ands.w	r0, r0, #1
10000fd4:	d01c      	beq.n	10001010 <slot_has_app+0x50>
10000fd6:	b410      	push	{r4}
10000fd8:	6c58      	ldr	r0, [r3, #68]	@ 0x44
10000fda:	6b5c      	ldr	r4, [r3, #52]	@ 0x34
10000fdc:	1822      	adds	r2, r4, r0
10000fde:	f102 5280 	add.w	r2, r2, #268435456	@ 0x10000000
10000fe2:	6811      	ldr	r1, [r2, #0]
10000fe4:	f101 4160 	add.w	r1, r1, #3758096384	@ 0xe0000000
10000fe8:	f5b1 2f02 	cmp.w	r1, #532480	@ 0x82000
10000fec:	d811      	bhi.n	10001012 <slot_has_app+0x52>
10000fee:	6b9b      	ldr	r3, [r3, #56]	@ 0x38
10000ff0:	4298      	cmp	r0, r3
10000ff2:	d20e      	bcs.n	10001012 <slot_has_app+0x52>
10000ff4:	6850      	ldr	r0, [r2, #4]
10000ff6:	f104 5280 	add.w	r2, r4, #268435456	@ 0x10000000
10000ffa:	4290      	cmp	r0, r2
10000ffc:	d309      	bcc.n	10001012 <slot_has_app+0x52>
10000ffe:	441c      	add	r4, r3
10001000:	f104 5480 	add.w	r4, r4, #268435456	@ 0x10000000
10001004:	42a0      	cmp	r0, r4
10001006:	bf2c      	ite	cs
10001008:	2000      	movcs	r0, #0
1000100a:	f000 0001 	andcc.w	r0, r0, #1
1000100e:	e001      	b.n	10001014 <slot_has_app+0x54>
10001010:	4770      	bx	lr
10001012:	2000      	movs	r0, #0
10001014:	f85d 4b04 	ldr.w	r4, [sp], #4
10001018:	4770      	bx	lr
1000101a:	2000      	movs	r0, #0
1000101c:	4770      	bx	lr
1000101e:	bf00      	nop

10001020 <led_set>:
10001020:	4b04      	ldr	r3, [pc, #16]	@ (10001034 <led_set+0x14>)
10001022:	781b      	ldrb	r3, [r3, #0]
10001024:	b123      	cbz	r3, 10001030 <led_set+0x10>
10001026:	4a04      	ldr	r2, [pc, #16]	@ (10001038 <led_set+0x18>)
10001028:	6853      	ldr	r3, [r2, #4]
1000102a:	03db      	lsls	r3, r3, #15
1000102c:	d4fc      	bmi.n	10001028 <led_set+0x8>
1000102e:	6110      	str	r0, [r2, #16]
10001030:	4770      	bx	lr
10001032:	bf00      	nop
10001034:	20000816 	.word	0x20000816
10001038:	50200000 	.word	0x50200000

1000103c <main>:
1000103c:	e92d 43f0 	stmdb	sp!, {r4, r5, r6, r7, r8, r9, lr}
10001040:	2002      	movs	r0, #2
10001042:	b0c1      	sub	sp, #260	@ 0x104
10001044:	f000 fa36 	bl	100014b4 <gpio_init>
10001048:	2002      	movs	r0, #2
1000104a:	f04f 0300 	mov.w	r3, #0
1000104e:	ec43 0044 	gpioc_bit_oe_put r0, r3
10001052:	2200      	movs	r2, #0
10001054:	2101      	movs	r1, #1
10001056:	f000 fa09 	bl	1000146c <gpio_set_pulls>
1000105a:	49af      	ldr	r1, [pc, #700]	@ (10001318 <main+0x2dc>)
1000105c:	48af      	ldr	r0, [pc, #700]	@ (1000131c <main+0x2e0>)
1000105e:	f001 fd4b 	bl	10002af8 <pio_add_program>
10001062:	2106      	movs	r1, #6
10001064:	4604      	mov	r4, r0
10001066:	2003      	movs	r0, #3
10001068:	f000 f9e2 	bl	10001430 <gpio_set_function>
1000106c:	2301      	movs	r3, #1
1000106e:	2203      	movs	r2, #3
10001070:	2100      	movs	r1, #0
10001072:	9300      	str	r3, [sp, #0]
10001074:	48a9      	ldr	r0, [pc, #676]	@ (1000131c <main+0x2e0>)
10001076:	f001 fdc9 	bl	10002c0c <pio_sm_set_consecutive_pindirs>
1000107a:	f44f 3380 	mov.w	r3, #65536	@ 0x10000
1000107e:	1ce1      	adds	r1, r4, #3
10001080:	930a      	str	r3, [sp, #40]	@ 0x28
10001082:	01e3      	lsls	r3, r4, #7
10001084:	4aa6      	ldr	r2, [pc, #664]	@ (10001320 <main+0x2e4>)
10001086:	ea43 3301 	orr.w	r3, r3, r1, lsl #12
1000108a:	4da6      	ldr	r5, [pc, #664]	@ (10001324 <main+0x2e8>)
1000108c:	f023 43c0 	bic.w	r3, r3, #1610612736	@ 0x60000000
10001090:	2005      	movs	r0, #5
10001092:	e9cd 320b 	strd	r3, r2, [sp, #44]	@ 0x2c
10001096:	950d      	str	r5, [sp, #52]	@ 0x34
10001098:	f000 fff6 	bl	10002088 <clock_get_hz>
1000109c:	ee07 0a90 	vmov	s15, r0
100010a0:	ed9f 6aa1 	vldr	s12, [pc, #644]	@ 10001328 <main+0x2ec>
100010a4:	eef8 7a67 	vcvt.f32.u32	s15, s15
100010a8:	eddf 6aa0 	vldr	s13, [pc, #640]	@ 1000132c <main+0x2f0>
100010ac:	ee87 7a86 	vdiv.f32	s14, s15, s12
100010b0:	ee37 7a26 	vadd.f32	s14, s14, s13
100010b4:	eefc 7ac7 	vcvt.u32.f32	s15, s14
100010b8:	ee17 3a90 	vmov	r3, s15
100010bc:	b29b      	uxth	r3, r3
100010be:	2b00      	cmp	r3, #0
100010c0:	f000 80af 	beq.w	10001222 <main+0x1e6>
100010c4:	ee07 3a90 	vmov	s15, r3
100010c8:	eef8 7a67 	vcvt.f32.u32	s15, s15
100010cc:	eddf 6a98 	vldr	s13, [pc, #608]	@ 10001330 <main+0x2f4>
100010d0:	ee77 7a67 	vsub.f32	s15, s14, s15
100010d4:	ee67 7aa6 	vmul.f32	s15, s15, s13
100010d8:	eefc 7ae7 	vcvt.u32.f32	s15, s15
100010dc:	edcd 7a03 	vstr	s15, [sp, #12]
100010e0:	f89d 200c 	ldrb.w	r2, [sp, #12]
100010e4:	4d8d      	ldr	r5, [pc, #564]	@ (1000131c <main+0x2e0>)
100010e6:	041b      	lsls	r3, r3, #16
100010e8:	ea43 2102 	orr.w	r1, r3, r2, lsl #8
100010ec:	910a      	str	r1, [sp, #40]	@ 0x28
100010ee:	4622      	mov	r2, r4
100010f0:	2100      	movs	r1, #0
100010f2:	ab0a      	add	r3, sp, #40	@ 0x28
100010f4:	4628      	mov	r0, r5
100010f6:	f001 fdcf 	bl	10002c98 <pio_sm_init>
100010fa:	2201      	movs	r2, #1
100010fc:	682b      	ldr	r3, [r5, #0]
100010fe:	4e8d      	ldr	r6, [pc, #564]	@ (10001334 <main+0x2f8>)
10001100:	4313      	orrs	r3, r2
10001102:	602b      	str	r3, [r5, #0]
10001104:	a80a      	add	r0, sp, #40	@ 0x28
10001106:	7032      	strb	r2, [r6, #0]
10001108:	f7ff f956 	bl	100003b8 <pico_boot_config_load>
1000110c:	980e      	ldr	r0, [sp, #56]	@ 0x38
1000110e:	4a8a      	ldr	r2, [pc, #552]	@ (10001338 <main+0x2fc>)
10001110:	f1a0 7337 	sub.w	r3, r0, #47972352	@ 0x2dc0000
10001114:	f5a3 43d8 	sub.w	r3, r3, #27648	@ 0x6c00
10001118:	4293      	cmp	r3, r2
1000111a:	f240 80ae 	bls.w	1000127a <main+0x23e>
1000111e:	af06      	add	r7, sp, #24
10001120:	201e      	movs	r0, #30
10001122:	f000 fe3b 	bl	10001d9c <sleep_ms>
10001126:	f04f 4350 	mov.w	r3, #3489660928	@ 0xd0000000
1000112a:	685a      	ldr	r2, [r3, #4]
1000112c:	0752      	lsls	r2, r2, #29
1000112e:	d47a      	bmi.n	10001226 <main+0x1ea>
10001130:	685c      	ldr	r4, [r3, #4]
10001132:	f014 0404 	ands.w	r4, r4, #4
10001136:	d17a      	bne.n	1000122e <main+0x1f2>
10001138:	4d78      	ldr	r5, [pc, #480]	@ (1000131c <main+0x2e0>)
1000113a:	f8df 8214 	ldr.w	r8, [pc, #532]	@ 10001350 <main+0x314>
1000113e:	f5b4 7f2f 	cmp.w	r4, #700	@ 0x2bc
10001142:	7833      	ldrb	r3, [r6, #0]
10001144:	f000 80ab 	beq.w	1000129e <main+0x262>
10001148:	b143      	cbz	r3, 1000115c <main+0x120>
1000114a:	686b      	ldr	r3, [r5, #4]
1000114c:	03d8      	lsls	r0, r3, #15
1000114e:	d4fc      	bmi.n	1000114a <main+0x10e>
10001150:	fba8 2304 	umull	r2, r3, r8, r4
10001154:	009b      	lsls	r3, r3, #2
10001156:	f403 53c0 	and.w	r3, r3, #6144	@ 0x1800
1000115a:	612b      	str	r3, [r5, #16]
1000115c:	200a      	movs	r0, #10
1000115e:	f000 fe1d 	bl	10001d9c <sleep_ms>
10001162:	f04f 4350 	mov.w	r3, #3489660928	@ 0xd0000000
10001166:	685b      	ldr	r3, [r3, #4]
10001168:	340a      	adds	r4, #10
1000116a:	075b      	lsls	r3, r3, #29
1000116c:	d5e7      	bpl.n	1000113e <main+0x102>
1000116e:	f640 33b8 	movw	r3, #3000	@ 0xbb8
10001172:	429c      	cmp	r4, r3
10001174:	f000 813c 	beq.w	100013f0 <main+0x3b4>
10001178:	f5b4 7f2f 	cmp.w	r4, #700	@ 0x2bc
1000117c:	d357      	bcc.n	1000122e <main+0x1f2>
1000117e:	2350      	movs	r3, #80	@ 0x50
10001180:	f89d 4034 	ldrb.w	r4, [sp, #52]	@ 0x34
10001184:	2102      	movs	r1, #2
10001186:	f44f 50c0 	mov.w	r0, #6144	@ 0x1800
1000118a:	461a      	mov	r2, r3
1000118c:	f7ff feec 	bl	10000f68 <led_blink>
10001190:	4621      	mov	r1, r4
10001192:	a80a      	add	r0, sp, #40	@ 0x28
10001194:	f7ff ff14 	bl	10000fc0 <slot_has_app>
10001198:	2800      	cmp	r0, #0
1000119a:	f000 80ba 	beq.w	10001312 <main+0x2d6>
1000119e:	2206      	movs	r2, #6
100011a0:	fbb4 f3f2 	udiv	r3, r4, r2
100011a4:	fb02 4313 	mls	r3, r2, r3, r4
100011a8:	b2db      	uxtb	r3, r3
100011aa:	2b05      	cmp	r3, #5
100011ac:	bf15      	itete	ne
100011ae:	4f63      	ldrne	r7, [pc, #396]	@ (1000133c <main+0x300>)
100011b0:	4863      	ldreq	r0, [pc, #396]	@ (10001340 <main+0x304>)
100011b2:	f857 0023 	ldrne.w	r0, [r7, r3, lsl #2]
100011b6:	4f61      	ldreq	r7, [pc, #388]	@ (1000133c <main+0x300>)
100011b8:	7833      	ldrb	r3, [r6, #0]
100011ba:	b10b      	cbz	r3, 100011c0 <main+0x184>
100011bc:	f7ff fecc 	bl	10000f58 <led_set.part.0>
100011c0:	f04f 0800 	mov.w	r8, #0
100011c4:	f04f 4550 	mov.w	r5, #3489660928	@ 0xd0000000
100011c8:	200a      	movs	r0, #10
100011ca:	f000 fde7 	bl	10001d9c <sleep_ms>
100011ce:	686b      	ldr	r3, [r5, #4]
100011d0:	0758      	lsls	r0, r3, #29
100011d2:	f100 80c1 	bmi.w	10001358 <main+0x31c>
100011d6:	f108 080a 	add.w	r8, r8, #10
100011da:	f5b8 7f61 	cmp.w	r8, #900	@ 0x384
100011de:	d3f3      	bcc.n	100011c8 <main+0x18c>
100011e0:	a80a      	add	r0, sp, #40	@ 0x28
100011e2:	f88d 4034 	strb.w	r4, [sp, #52]	@ 0x34
100011e6:	f7ff f999 	bl	1000051c <pico_boot_config_save>
100011ea:	4621      	mov	r1, r4
100011ec:	a80a      	add	r0, sp, #40	@ 0x28
100011ee:	f7ff fee7 	bl	10000fc0 <slot_has_app>
100011f2:	2800      	cmp	r0, #0
100011f4:	f000 8111 	beq.w	1000141a <main+0x3de>
100011f8:	2306      	movs	r3, #6
100011fa:	fbb4 f2f3 	udiv	r2, r4, r3
100011fe:	fb03 4312 	mls	r3, r3, r2, r4
10001202:	b2db      	uxtb	r3, r3
10001204:	2b05      	cmp	r3, #5
10001206:	f000 8106 	beq.w	10001416 <main+0x3da>
1000120a:	f857 0023 	ldr.w	r0, [r7, r3, lsl #2]
1000120e:	2350      	movs	r3, #80	@ 0x50
10001210:	2278      	movs	r2, #120	@ 0x78
10001212:	2103      	movs	r1, #3
10001214:	f7ff fea8 	bl	10000f68 <led_blink>
10001218:	f44f 60fa 	mov.w	r0, #2000	@ 0x7d0
1000121c:	f7ff fe6c 	bl	10000ef8 <wait_button_release>
10001220:	e005      	b.n	1000122e <main+0x1f2>
10001222:	461a      	mov	r2, r3
10001224:	e75e      	b.n	100010e4 <main+0xa8>
10001226:	f44f 7016 	mov.w	r0, #600	@ 0x258
1000122a:	f000 fdb7 	bl	10001d9c <sleep_ms>
1000122e:	f89d 3034 	ldrb.w	r3, [sp, #52]	@ 0x34
10001232:	f89d 2035 	ldrb.w	r2, [sp, #53]	@ 0x35
10001236:	429a      	cmp	r2, r3
10001238:	d912      	bls.n	10001260 <main+0x224>
1000123a:	2214      	movs	r2, #20
1000123c:	fb02 f303 	mul.w	r3, r2, r3
10001240:	f503 7280 	add.w	r2, r3, #256	@ 0x100
10001244:	446a      	add	r2, sp
10001246:	f852 2c9c 	ldr.w	r2, [r2, #-156]
1000124a:	07d2      	lsls	r2, r2, #31
1000124c:	d508      	bpl.n	10001260 <main+0x224>
1000124e:	f103 0434 	add.w	r4, r3, #52	@ 0x34
10001252:	ab0a      	add	r3, sp, #40	@ 0x28
10001254:	191d      	adds	r5, r3, r4
10001256:	4628      	mov	r0, r5
10001258:	f7ff fe2a 	bl	10000eb0 <app_vector_valid>
1000125c:	2800      	cmp	r0, #0
1000125e:	d138      	bne.n	100012d2 <main+0x296>
10001260:	2378      	movs	r3, #120	@ 0x78
10001262:	2106      	movs	r1, #6
10001264:	f44f 10c0 	mov.w	r0, #1572864	@ 0x180000
10001268:	461a      	mov	r2, r3
1000126a:	f7ff fe7d 	bl	10000f68 <led_blink>
1000126e:	2100      	movs	r1, #0
10001270:	2264      	movs	r2, #100	@ 0x64
10001272:	4608      	mov	r0, r1
10001274:	f001 f8e4 	bl	10002440 <watchdog_reboot>
10001278:	e7fe      	b.n	10001278 <main+0x23c>
1000127a:	f44f 747a 	mov.w	r4, #1000	@ 0x3e8
1000127e:	fbb0 f4f4 	udiv	r4, r0, r4
10001282:	af06      	add	r7, sp, #24
10001284:	463b      	mov	r3, r7
10001286:	4620      	mov	r0, r4
10001288:	aa05      	add	r2, sp, #20
1000128a:	a904      	add	r1, sp, #16
1000128c:	f000 ffc4 	bl	10002218 <check_sys_clock_khz>
10001290:	2800      	cmp	r0, #0
10001292:	f040 80ba 	bne.w	1000140a <main+0x3ce>
10001296:	4621      	mov	r1, r4
10001298:	482a      	ldr	r0, [pc, #168]	@ (10001344 <main+0x308>)
1000129a:	f000 f92f 	bl	100014fc <panic>
1000129e:	4d1f      	ldr	r5, [pc, #124]	@ (1000131c <main+0x2e0>)
100012a0:	f8df 80b0 	ldr.w	r8, [pc, #176]	@ 10001354 <main+0x318>
100012a4:	b123      	cbz	r3, 100012b0 <main+0x274>
100012a6:	686b      	ldr	r3, [r5, #4]
100012a8:	03db      	lsls	r3, r3, #15
100012aa:	d4fc      	bmi.n	100012a6 <main+0x26a>
100012ac:	f8c5 8010 	str.w	r8, [r5, #16]
100012b0:	200a      	movs	r0, #10
100012b2:	f000 fd73 	bl	10001d9c <sleep_ms>
100012b6:	f04f 4350 	mov.w	r3, #3489660928	@ 0xd0000000
100012ba:	685b      	ldr	r3, [r3, #4]
100012bc:	340a      	adds	r4, #10
100012be:	0759      	lsls	r1, r3, #29
100012c0:	f53f af55 	bmi.w	1000116e <main+0x132>
100012c4:	f640 33b8 	movw	r3, #3000	@ 0xbb8
100012c8:	429c      	cmp	r4, r3
100012ca:	f000 8091 	beq.w	100013f0 <main+0x3b4>
100012ce:	7833      	ldrb	r3, [r6, #0]
100012d0:	e7e8      	b.n	100012a4 <main+0x268>
100012d2:	2346      	movs	r3, #70	@ 0x46
100012d4:	225a      	movs	r2, #90	@ 0x5a
100012d6:	2103      	movs	r1, #3
100012d8:	f04f 50c0 	mov.w	r0, #402653184	@ 0x18000000
100012dc:	f7ff fe44 	bl	10000f68 <led_blink>
100012e0:	ab0a      	add	r3, sp, #40	@ 0x28
100012e2:	591c      	ldr	r4, [r3, r4]
100012e4:	692a      	ldr	r2, [r5, #16]
100012e6:	7833      	ldrb	r3, [r6, #0]
100012e8:	4414      	add	r4, r2
100012ea:	f104 5480 	add.w	r4, r4, #268435456	@ 0x10000000
100012ee:	e9d4 5600 	ldrd	r5, r6, [r4]
100012f2:	b113      	cbz	r3, 100012fa <main+0x2be>
100012f4:	2000      	movs	r0, #0
100012f6:	f7ff fe2f 	bl	10000f58 <led_set.part.0>
100012fa:	2002      	movs	r0, #2
100012fc:	f000 fd4e 	bl	10001d9c <sleep_ms>
10001300:	b672      	cpsid	i
10001302:	f001 fbad 	bl	10002a60 <multicore_reset_core1>
10001306:	4b10      	ldr	r3, [pc, #64]	@ (10001348 <main+0x30c>)
10001308:	609c      	str	r4, [r3, #8]
1000130a:	f385 8808 	msr	MSP, r5
1000130e:	4730      	bx	r6
10001310:	e7fe      	b.n	10001310 <main+0x2d4>
10001312:	480e      	ldr	r0, [pc, #56]	@ (1000134c <main+0x310>)
10001314:	4f09      	ldr	r7, [pc, #36]	@ (1000133c <main+0x300>)
10001316:	e74f      	b.n	100011b8 <main+0x17c>
10001318:	1000304c 	.word	0x1000304c
1000131c:	50200000 	.word	0x50200000
10001320:	70060000 	.word	0x70060000
10001324:	20000c00 	.word	0x20000c00
10001328:	4af42400 	.word	0x4af42400
1000132c:	3b000000 	.word	0x3b000000
10001330:	43800000 	.word	0x43800000
10001334:	20000816 	.word	0x20000816
10001338:	0f053700 	.word	0x0f053700
1000133c:	10003038 	.word	0x10003038
10001340:	00181800 	.word	0x00181800
10001344:	10002f74 	.word	0x10002f74
10001348:	e000ed00 	.word	0xe000ed00
1000134c:	18181800 	.word	0x18181800
10001350:	cccccccd 	.word	0xcccccccd
10001354:	12120000 	.word	0x12120000
10001358:	f1a8 081f 	sub.w	r8, r8, #31
1000135c:	f5b8 7f59 	cmp.w	r8, #868	@ 0x364
10001360:	d80c      	bhi.n	1000137c <main+0x340>
10001362:	f89d 3035 	ldrb.w	r3, [sp, #53]	@ 0x35
10001366:	3401      	adds	r4, #1
10001368:	b2e4      	uxtb	r4, r4
1000136a:	429c      	cmp	r4, r3
1000136c:	d31f      	bcc.n	100013ae <main+0x372>
1000136e:	b9eb      	cbnz	r3, 100013ac <main+0x370>
10001370:	461c      	mov	r4, r3
10001372:	482b      	ldr	r0, [pc, #172]	@ (10001420 <main+0x3e4>)
10001374:	7833      	ldrb	r3, [r6, #0]
10001376:	b10b      	cbz	r3, 1000137c <main+0x340>
10001378:	f7ff fdee 	bl	10000f58 <led_set.part.0>
1000137c:	f643 2998 	movw	r9, #15000	@ 0x3a98
10001380:	f04f 0800 	mov.w	r8, #0
10001384:	f108 080a 	add.w	r8, r8, #10
10001388:	45c8      	cmp	r8, r9
1000138a:	f63f af50 	bhi.w	1000122e <main+0x1f2>
1000138e:	200a      	movs	r0, #10
10001390:	f000 fd04 	bl	10001d9c <sleep_ms>
10001394:	686b      	ldr	r3, [r5, #4]
10001396:	075a      	lsls	r2, r3, #29
10001398:	d4f4      	bmi.n	10001384 <main+0x348>
1000139a:	200a      	movs	r0, #10
1000139c:	f000 fcfe 	bl	10001d9c <sleep_ms>
100013a0:	686b      	ldr	r3, [r5, #4]
100013a2:	075b      	lsls	r3, r3, #29
100013a4:	d4ec      	bmi.n	10001380 <main+0x344>
100013a6:	f04f 0814 	mov.w	r8, #20
100013aa:	e70d      	b.n	100011c8 <main+0x18c>
100013ac:	2400      	movs	r4, #0
100013ae:	eb04 0384 	add.w	r3, r4, r4, lsl #2
100013b2:	eb0d 0383 	add.w	r3, sp, r3, lsl #2
100013b6:	6e5b      	ldr	r3, [r3, #100]	@ 0x64
100013b8:	07d9      	lsls	r1, r3, #31
100013ba:	d507      	bpl.n	100013cc <main+0x390>
100013bc:	2014      	movs	r0, #20
100013be:	ab0a      	add	r3, sp, #40	@ 0x28
100013c0:	fb00 3004 	mla	r0, r0, r4, r3
100013c4:	3034      	adds	r0, #52	@ 0x34
100013c6:	f7ff fd73 	bl	10000eb0 <app_vector_valid>
100013ca:	b908      	cbnz	r0, 100013d0 <main+0x394>
100013cc:	4814      	ldr	r0, [pc, #80]	@ (10001420 <main+0x3e4>)
100013ce:	e7d1      	b.n	10001374 <main+0x338>
100013d0:	4b14      	ldr	r3, [pc, #80]	@ (10001424 <main+0x3e8>)
100013d2:	fba3 2304 	umull	r2, r3, r3, r4
100013d6:	089b      	lsrs	r3, r3, #2
100013d8:	eb03 0343 	add.w	r3, r3, r3, lsl #1
100013dc:	eba4 0343 	sub.w	r3, r4, r3, lsl #1
100013e0:	b2db      	uxtb	r3, r3
100013e2:	2b05      	cmp	r3, #5
100013e4:	d002      	beq.n	100013ec <main+0x3b0>
100013e6:	f857 0023 	ldr.w	r0, [r7, r3, lsl #2]
100013ea:	e7c3      	b.n	10001374 <main+0x338>
100013ec:	480e      	ldr	r0, [pc, #56]	@ (10001428 <main+0x3ec>)
100013ee:	e7c1      	b.n	10001374 <main+0x338>
100013f0:	4b0e      	ldr	r3, [pc, #56]	@ (1000142c <main+0x3f0>)
100013f2:	cb0f      	ldmia	r3, {r0, r1, r2, r3}
100013f4:	e887 000f 	stmia.w	r7, {r0, r1, r2, r3}
100013f8:	f44f 60fa 	mov.w	r0, #2000	@ 0x7d0
100013fc:	f7ff fd7c 	bl	10000ef8 <wait_button_release>
10001400:	4639      	mov	r1, r7
10001402:	a80a      	add	r0, sp, #40	@ 0x28
10001404:	f7ff f95e 	bl	100006c4 <pico_boot_calibration_run>
10001408:	e711      	b.n	1000122e <main+0x1f2>
1000140a:	9804      	ldr	r0, [sp, #16]
1000140c:	e9dd 1205 	ldrd	r1, r2, [sp, #20]
10001410:	f000 fe40 	bl	10002094 <set_sys_clock_pll>
10001414:	e684      	b.n	10001120 <main+0xe4>
10001416:	4804      	ldr	r0, [pc, #16]	@ (10001428 <main+0x3ec>)
10001418:	e6f9      	b.n	1000120e <main+0x1d2>
1000141a:	4801      	ldr	r0, [pc, #4]	@ (10001420 <main+0x3e4>)
1000141c:	e6f7      	b.n	1000120e <main+0x1d2>
1000141e:	bf00      	nop
10001420:	18181800 	.word	0x18181800
10001424:	aaaaaaab 	.word	0xaaaaaaab
10001428:	00181800 	.word	0x00181800
1000142c:	1000305c 	.word	0x1000305c

10001430 <gpio_set_function>:
10001430:	b410      	push	{r4}
10001432:	f44f 7480 	mov.w	r4, #256	@ 0x100
10001436:	4b0c      	ldr	r3, [pc, #48]	@ (10001468 <gpio_set_function+0x38>)
10001438:	f853 2020 	ldr.w	r2, [r3, r0, lsl #2]
1000143c:	eb03 0380 	add.w	r3, r3, r0, lsl #2
10001440:	00c0      	lsls	r0, r0, #3
10001442:	f082 0240 	eor.w	r2, r2, #64	@ 0x40
10001446:	f100 4080 	add.w	r0, r0, #1073741824	@ 0x40000000
1000144a:	f503 5c80 	add.w	ip, r3, #4096	@ 0x1000
1000144e:	f002 02c0 	and.w	r2, r2, #192	@ 0xc0
10001452:	f500 3020 	add.w	r0, r0, #163840	@ 0x28000
10001456:	f503 5340 	add.w	r3, r3, #12288	@ 0x3000
1000145a:	f8cc 2000 	str.w	r2, [ip]
1000145e:	6041      	str	r1, [r0, #4]
10001460:	601c      	str	r4, [r3, #0]
10001462:	f85d 4b04 	ldr.w	r4, [sp], #4
10001466:	4770      	bx	lr
10001468:	40038004 	.word	0x40038004

1000146c <gpio_set_pulls>:
1000146c:	b410      	push	{r4}
1000146e:	4c08      	ldr	r4, [pc, #32]	@ (10001490 <gpio_set_pulls+0x24>)
10001470:	00c9      	lsls	r1, r1, #3
10001472:	ea41 0182 	orr.w	r1, r1, r2, lsl #2
10001476:	f854 2020 	ldr.w	r2, [r4, r0, lsl #2]
1000147a:	eb04 0380 	add.w	r3, r4, r0, lsl #2
1000147e:	4051      	eors	r1, r2
10001480:	f503 5380 	add.w	r3, r3, #4096	@ 0x1000
10001484:	f001 010c 	and.w	r1, r1, #12
10001488:	f85d 4b04 	ldr.w	r4, [sp], #4
1000148c:	6019      	str	r1, [r3, #0]
1000148e:	4770      	bx	lr
10001490:	40038004 	.word	0x40038004

10001494 <gpio_set_input_enabled>:
10001494:	4b06      	ldr	r3, [pc, #24]	@ (100014b0 <gpio_set_input_enabled+0x1c>)
10001496:	2240      	movs	r2, #64	@ 0x40
10001498:	eb03 0380 	add.w	r3, r3, r0, lsl #2
1000149c:	b119      	cbz	r1, 100014a6 <gpio_set_input_enabled+0x12>
1000149e:	f503 5300 	add.w	r3, r3, #8192	@ 0x2000
100014a2:	601a      	str	r2, [r3, #0]
100014a4:	4770      	bx	lr
100014a6:	f503 5340 	add.w	r3, r3, #12288	@ 0x3000
100014aa:	601a      	str	r2, [r3, #0]
100014ac:	4770      	bx	lr
100014ae:	bf00      	nop
100014b0:	40038004 	.word	0x40038004

100014b4 <gpio_init>:
100014b4:	b430      	push	{r4, r5}
100014b6:	f04f 0300 	mov.w	r3, #0
100014ba:	ec43 0044 	gpioc_bit_oe_put r0, r3
100014be:	ec43 0040 	gpioc_bit_out_put r0, r3
100014c2:	2505      	movs	r5, #5
100014c4:	f44f 7480 	mov.w	r4, #256	@ 0x100
100014c8:	4b0b      	ldr	r3, [pc, #44]	@ (100014f8 <gpio_init+0x44>)
100014ca:	00c2      	lsls	r2, r0, #3
100014cc:	f853 1020 	ldr.w	r1, [r3, r0, lsl #2]
100014d0:	eb03 0080 	add.w	r0, r3, r0, lsl #2
100014d4:	f081 0140 	eor.w	r1, r1, #64	@ 0x40
100014d8:	f102 4380 	add.w	r3, r2, #1073741824	@ 0x40000000
100014dc:	f503 3320 	add.w	r3, r3, #163840	@ 0x28000
100014e0:	f001 02c0 	and.w	r2, r1, #192	@ 0xc0
100014e4:	f500 5180 	add.w	r1, r0, #4096	@ 0x1000
100014e8:	f500 5040 	add.w	r0, r0, #12288	@ 0x3000
100014ec:	600a      	str	r2, [r1, #0]
100014ee:	605d      	str	r5, [r3, #4]
100014f0:	6004      	str	r4, [r0, #0]
100014f2:	bc30      	pop	{r4, r5}
100014f4:	4770      	bx	lr
100014f6:	bf00      	nop
100014f8:	40038004 	.word	0x40038004

100014fc <panic>:
100014fc:	b40f      	push	{r0, r1, r2, r3}
100014fe:	b500      	push	{lr}
10001500:	b083      	sub	sp, #12
10001502:	9c04      	ldr	r4, [sp, #16]
10001504:	4807      	ldr	r0, [pc, #28]	@ (10001524 <panic+0x28>)
10001506:	f001 fa8d 	bl	10002a24 <__wrap_puts>
1000150a:	b13c      	cbz	r4, 1000151c <panic+0x20>
1000150c:	a905      	add	r1, sp, #20
1000150e:	4620      	mov	r0, r4
10001510:	9101      	str	r1, [sp, #4]
10001512:	f001 f943 	bl	1000279c <weak_raw_vprintf>
10001516:	4804      	ldr	r0, [pc, #16]	@ (10001528 <panic+0x2c>)
10001518:	f001 fa84 	bl	10002a24 <__wrap_puts>
1000151c:	2001      	movs	r0, #1
1000151e:	f001 f955 	bl	100027cc <_exit>
10001522:	bf00      	nop
10001524:	10002fa8 	.word	0x10002fa8
10001528:	10002fb8 	.word	0x10002fb8

1000152c <hw_claim_lock>:
1000152c:	f3ef 8010 	mrs	r0, PRIMASK
10001530:	b672      	cpsid	i
10001532:	4b06      	ldr	r3, [pc, #24]	@ (1000154c <hw_claim_lock+0x20>)
10001534:	e8d3 1fcf 	ldaexb	r1, [r3]
10001538:	2201      	movs	r2, #1
1000153a:	2900      	cmp	r1, #0
1000153c:	d1fa      	bne.n	10001534 <hw_claim_lock+0x8>
1000153e:	e8c3 2f41 	strexb	r1, r2, [r3]
10001542:	2900      	cmp	r1, #0
10001544:	d1f6      	bne.n	10001534 <hw_claim_lock+0x8>
10001546:	f3bf 8f5f 	dmb	sy
1000154a:	4770      	bx	lr
1000154c:	2000068f 	.word	0x2000068f

10001550 <hw_claim_unlock>:
10001550:	2300      	movs	r3, #0
10001552:	4a03      	ldr	r2, [pc, #12]	@ (10001560 <hw_claim_unlock+0x10>)
10001554:	e8c2 3f8f 	stlb	r3, [r2]
10001558:	f380 8810 	msr	PRIMASK, r0
1000155c:	4770      	bx	lr
1000155e:	bf00      	nop
10001560:	2000068f 	.word	0x2000068f

10001564 <hw_claim_or_assert>:
10001564:	b570      	push	{r4, r5, r6, lr}
10001566:	4686      	mov	lr, r0
10001568:	f3ef 8510 	mrs	r5, PRIMASK
1000156c:	b672      	cpsid	i
1000156e:	4c12      	ldr	r4, [pc, #72]	@ (100015b8 <hw_claim_or_assert+0x54>)
10001570:	e8d4 6fcf 	ldaexb	r6, [r4]
10001574:	2001      	movs	r0, #1
10001576:	2e00      	cmp	r6, #0
10001578:	d1fa      	bne.n	10001570 <hw_claim_or_assert+0xc>
1000157a:	e8c4 0f46 	strexb	r6, r0, [r4]
1000157e:	2e00      	cmp	r6, #0
10001580:	d1f6      	bne.n	10001570 <hw_claim_or_assert+0xc>
10001582:	f3bf 8f5f 	dmb	sy
10001586:	f04f 0c01 	mov.w	ip, #1
1000158a:	08c8      	lsrs	r0, r1, #3
1000158c:	f001 0307 	and.w	r3, r1, #7
10001590:	fa0c f303 	lsl.w	r3, ip, r3
10001594:	f81e c000 	ldrb.w	ip, [lr, r0]
10001598:	ea1c 0603 	ands.w	r6, ip, r3
1000159c:	d108      	bne.n	100015b0 <hw_claim_or_assert+0x4c>
1000159e:	ea4c 0c03 	orr.w	ip, ip, r3
100015a2:	f80e c000 	strb.w	ip, [lr, r0]
100015a6:	e8c4 6f8f 	stlb	r6, [r4]
100015aa:	f385 8810 	msr	PRIMASK, r5
100015ae:	bd70      	pop	{r4, r5, r6, pc}
100015b0:	4610      	mov	r0, r2
100015b2:	f7ff ffa3 	bl	100014fc <panic>
100015b6:	bf00      	nop
100015b8:	2000068f 	.word	0x2000068f

100015bc <next_striped_spin_lock_num>:
100015bc:	4a04      	ldr	r2, [pc, #16]	@ (100015d0 <next_striped_spin_lock_num+0x14>)
100015be:	7810      	ldrb	r0, [r2, #0]
100015c0:	1c43      	adds	r3, r0, #1
100015c2:	b2db      	uxtb	r3, r3
100015c4:	2b18      	cmp	r3, #24
100015c6:	bf28      	it	cs
100015c8:	2310      	movcs	r3, #16
100015ca:	7013      	strb	r3, [r2, #0]
100015cc:	4770      	bx	lr
100015ce:	bf00      	nop
100015d0:	200004b8 	.word	0x200004b8

100015d4 <spinlock_set_extexclall>:
100015d4:	f04f 22e0 	mov.w	r2, #3758153728	@ 0xe000e000
100015d8:	6893      	ldr	r3, [r2, #8]
100015da:	f043 5300 	orr.w	r3, r3, #536870912	@ 0x20000000
100015de:	6093      	str	r3, [r2, #8]
100015e0:	4770      	bx	lr
100015e2:	bf00      	nop

100015e4 <spin_locks_reset>:
100015e4:	2100      	movs	r1, #0
100015e6:	4b04      	ldr	r3, [pc, #16]	@ (100015f8 <spin_locks_reset+0x14>)
100015e8:	f103 0220 	add.w	r2, r3, #32
100015ec:	e8c3 1f8f 	stlb	r1, [r3]
100015f0:	3301      	adds	r3, #1
100015f2:	4293      	cmp	r3, r2
100015f4:	d1fa      	bne.n	100015ec <spin_locks_reset+0x8>
100015f6:	4770      	bx	lr
100015f8:	20000684 	.word	0x20000684

100015fc <runtime_init_per_core_irq_priorities>:
100015fc:	f04f 23e0 	mov.w	r3, #3758153728	@ 0xe000e000
10001600:	f04f 3280 	mov.w	r2, #2155905152	@ 0x80808080
10001604:	f8c3 2400 	str.w	r2, [r3, #1024]	@ 0x400
10001608:	f8c3 2404 	str.w	r2, [r3, #1028]	@ 0x404
1000160c:	f8c3 2408 	str.w	r2, [r3, #1032]	@ 0x408
10001610:	f8c3 240c 	str.w	r2, [r3, #1036]	@ 0x40c
10001614:	f8c3 2410 	str.w	r2, [r3, #1040]	@ 0x410
10001618:	f8c3 2414 	str.w	r2, [r3, #1044]	@ 0x414
1000161c:	f8c3 2418 	str.w	r2, [r3, #1048]	@ 0x418
10001620:	f8c3 241c 	str.w	r2, [r3, #1052]	@ 0x41c
10001624:	f8c3 2420 	str.w	r2, [r3, #1056]	@ 0x420
10001628:	f8c3 2424 	str.w	r2, [r3, #1060]	@ 0x424
1000162c:	f8c3 2428 	str.w	r2, [r3, #1064]	@ 0x428
10001630:	f8c3 242c 	str.w	r2, [r3, #1068]	@ 0x42c
10001634:	f8c3 2430 	str.w	r2, [r3, #1072]	@ 0x430
10001638:	b662      	cpsie	i
1000163a:	4770      	bx	lr

1000163c <irq_set_enabled>:
1000163c:	2301      	movs	r3, #1
1000163e:	f000 021f 	and.w	r2, r0, #31
10001642:	4093      	lsls	r3, r2
10001644:	0940      	lsrs	r0, r0, #5
10001646:	b141      	cbz	r1, 1000165a <irq_set_enabled+0x1e>
10001648:	0080      	lsls	r0, r0, #2
1000164a:	f100 4060 	add.w	r0, r0, #3758096384	@ 0xe0000000
1000164e:	f500 4061 	add.w	r0, r0, #57600	@ 0xe100
10001652:	f8c0 3180 	str.w	r3, [r0, #384]	@ 0x180
10001656:	6003      	str	r3, [r0, #0]
10001658:	4770      	bx	lr
1000165a:	4a02      	ldr	r2, [pc, #8]	@ (10001664 <irq_set_enabled+0x28>)
1000165c:	3020      	adds	r0, #32
1000165e:	f842 3020 	str.w	r3, [r2, r0, lsl #2]
10001662:	4770      	bx	lr
10001664:	e000e100 	.word	0xe000e100

10001668 <irq_is_enabled>:
10001668:	2301      	movs	r3, #1
1000166a:	4a06      	ldr	r2, [pc, #24]	@ (10001684 <irq_is_enabled+0x1c>)
1000166c:	0941      	lsrs	r1, r0, #5
1000166e:	f852 2021 	ldr.w	r2, [r2, r1, lsl #2]
10001672:	f000 001f 	and.w	r0, r0, #31
10001676:	fa03 f000 	lsl.w	r0, r3, r0
1000167a:	4010      	ands	r0, r2
1000167c:	3800      	subs	r0, #0
1000167e:	bf18      	it	ne
10001680:	2001      	movne	r0, #1
10001682:	4770      	bx	lr
10001684:	e000e100 	.word	0xe000e100

10001688 <irq_set_exclusive_handler>:
10001688:	b5f8      	push	{r3, r4, r5, r6, r7, lr}
1000168a:	460d      	mov	r5, r1
1000168c:	f3ef 8710 	mrs	r7, PRIMASK
10001690:	b672      	cpsid	i
10001692:	4e12      	ldr	r6, [pc, #72]	@ (100016dc <irq_set_exclusive_handler+0x54>)
10001694:	e8d6 2fcf 	ldaexb	r2, [r6]
10001698:	2301      	movs	r3, #1
1000169a:	2a00      	cmp	r2, #0
1000169c:	d1fa      	bne.n	10001694 <irq_set_exclusive_handler+0xc>
1000169e:	e8c6 3f42 	strexb	r2, r3, [r6]
100016a2:	2a00      	cmp	r2, #0
100016a4:	d1f6      	bne.n	10001694 <irq_set_exclusive_handler+0xc>
100016a6:	f3bf 8f5f 	dmb	sy
100016aa:	4b0d      	ldr	r3, [pc, #52]	@ (100016e0 <irq_set_exclusive_handler+0x58>)
100016ac:	f100 0410 	add.w	r4, r0, #16
100016b0:	689b      	ldr	r3, [r3, #8]
100016b2:	4a0c      	ldr	r2, [pc, #48]	@ (100016e4 <irq_set_exclusive_handler+0x5c>)
100016b4:	f853 3024 	ldr.w	r3, [r3, r4, lsl #2]
100016b8:	4293      	cmp	r3, r2
100016ba:	d003      	beq.n	100016c4 <irq_set_exclusive_handler+0x3c>
100016bc:	4299      	cmp	r1, r3
100016be:	d001      	beq.n	100016c4 <irq_set_exclusive_handler+0x3c>
100016c0:	f000 ff54 	bl	1000256c <hard_assertion_failure>
100016c4:	4b06      	ldr	r3, [pc, #24]	@ (100016e0 <irq_set_exclusive_handler+0x58>)
100016c6:	689b      	ldr	r3, [r3, #8]
100016c8:	f843 5024 	str.w	r5, [r3, r4, lsl #2]
100016cc:	f3bf 8f5f 	dmb	sy
100016d0:	2300      	movs	r3, #0
100016d2:	e8c6 3f8f 	stlb	r3, [r6]
100016d6:	f387 8810 	msr	PRIMASK, r7
100016da:	bdf8      	pop	{r3, r4, r5, r6, r7, pc}
100016dc:	2000068d 	.word	0x2000068d
100016e0:	e000ed00 	.word	0xe000ed00
100016e4:	10000111 	.word	0x10000111

100016e8 <lock_init>:
100016e8:	4b01      	ldr	r3, [pc, #4]	@ (100016f0 <lock_init+0x8>)
100016ea:	440b      	add	r3, r1
100016ec:	6003      	str	r3, [r0, #0]
100016ee:	4770      	bx	lr
100016f0:	20000684 	.word	0x20000684

100016f4 <runtime_init_mutex>:
100016f4:	b570      	push	{r4, r5, r6, lr}
100016f6:	4c10      	ldr	r4, [pc, #64]	@ (10001738 <runtime_init_mutex+0x44>)
100016f8:	4d10      	ldr	r5, [pc, #64]	@ (1000173c <runtime_init_mutex+0x48>)
100016fa:	42ac      	cmp	r4, r5
100016fc:	d20e      	bcs.n	1000171c <runtime_init_mutex+0x28>
100016fe:	26ff      	movs	r6, #255	@ 0xff
10001700:	6823      	ldr	r3, [r4, #0]
10001702:	b163      	cbz	r3, 1000171e <runtime_init_mutex+0x2a>
10001704:	f7ff ff5a 	bl	100015bc <next_striped_spin_lock_num>
10001708:	4601      	mov	r1, r0
1000170a:	4620      	mov	r0, r4
1000170c:	f7ff ffec 	bl	100016e8 <lock_init>
10001710:	80a6      	strh	r6, [r4, #4]
10001712:	f3bf 8f5f 	dmb	sy
10001716:	3408      	adds	r4, #8
10001718:	42ac      	cmp	r4, r5
1000171a:	d3f1      	bcc.n	10001700 <runtime_init_mutex+0xc>
1000171c:	bd70      	pop	{r4, r5, r6, pc}
1000171e:	f7ff ff4d 	bl	100015bc <next_striped_spin_lock_num>
10001722:	4601      	mov	r1, r0
10001724:	4620      	mov	r0, r4
10001726:	f7ff ffdf 	bl	100016e8 <lock_init>
1000172a:	7126      	strb	r6, [r4, #4]
1000172c:	f3bf 8f5f 	dmb	sy
10001730:	3408      	adds	r4, #8
10001732:	42ac      	cmp	r4, r5
10001734:	d3e4      	bcc.n	10001700 <runtime_init_mutex+0xc>
10001736:	bd70      	pop	{r4, r5, r6, pc}
10001738:	200004d4 	.word	0x200004d4
1000173c:	200004e4 	.word	0x200004e4

10001740 <sleep_until_callback>:
10001740:	4b0d      	ldr	r3, [pc, #52]	@ (10001778 <sleep_until_callback+0x38>)
10001742:	681a      	ldr	r2, [r3, #0]
10001744:	f3ef 8110 	mrs	r1, PRIMASK
10001748:	b672      	cpsid	i
1000174a:	e8d2 cfcf 	ldaexb	ip, [r2]
1000174e:	2001      	movs	r0, #1
10001750:	f1bc 0f00 	cmp.w	ip, #0
10001754:	d1f9      	bne.n	1000174a <sleep_until_callback+0xa>
10001756:	e8c2 0f4c 	strexb	ip, r0, [r2]
1000175a:	f1bc 0f00 	cmp.w	ip, #0
1000175e:	d1f4      	bne.n	1000174a <sleep_until_callback+0xa>
10001760:	f3bf 8f5f 	dmb	sy
10001764:	2200      	movs	r2, #0
10001766:	681b      	ldr	r3, [r3, #0]
10001768:	e8c3 2f8f 	stlb	r2, [r3]
1000176c:	f381 8810 	msr	PRIMASK, r1
10001770:	bf40      	sev
10001772:	2000      	movs	r0, #0
10001774:	2100      	movs	r1, #0
10001776:	4770      	bx	lr
10001778:	20000810 	.word	0x20000810
1000177c:	00000000 	.word	0x00000000

10001780 <alarm_pool_irq_handler>:
10001780:	e92d 4ff0 	stmdb	sp!, {r4, r5, r6, r7, r8, r9, sl, fp, lr}
10001784:	ed2d 8b02 	vpush	{d8}
10001788:	b085      	sub	sp, #20
1000178a:	f3ef 8305 	mrs	r3, IPSR
1000178e:	b2db      	uxtb	r3, r3
10001790:	3b10      	subs	r3, #16
10001792:	089a      	lsrs	r2, r3, #2
10001794:	bf18      	it	ne
10001796:	2201      	movne	r2, #1
10001798:	f04f 0101 	mov.w	r1, #1
1000179c:	f003 0b03 	and.w	fp, r3, #3
100017a0:	bf18      	it	ne
100017a2:	4dad      	ldrne	r5, [pc, #692]	@ (10001a58 <alarm_pool_irq_handler+0x2d8>)
100017a4:	4bad      	ldr	r3, [pc, #692]	@ (10001a5c <alarm_pool_irq_handler+0x2dc>)
100017a6:	bf08      	it	eq
100017a8:	4dad      	ldreq	r5, [pc, #692]	@ (10001a60 <alarm_pool_irq_handler+0x2e0>)
100017aa:	eb0b 0282 	add.w	r2, fp, r2, lsl #2
100017ae:	f853 6022 	ldr.w	r6, [r3, r2, lsl #2]
100017b2:	fa01 f20b 	lsl.w	r2, r1, fp
100017b6:	f505 5341 	add.w	r3, r5, #12352	@ 0x3040
100017ba:	ed9f 8ba5 	vldr	d8, [pc, #660]	@ 10001a50 <alarm_pool_irq_handler+0x2d0>
100017be:	9201      	str	r2, [sp, #4]
100017c0:	605a      	str	r2, [r3, #4]
100017c2:	e031      	b.n	10001828 <alarm_pool_irq_handler+0xa8>
100017c4:	88b3      	ldrh	r3, [r6, #4]
100017c6:	041b      	lsls	r3, r3, #16
100017c8:	f140 8095 	bpl.w	100018f6 <alarm_pool_irq_handler+0x176>
100017cc:	79b3      	ldrb	r3, [r6, #6]
100017ce:	2b00      	cmp	r3, #0
100017d0:	f040 80df 	bne.w	10001992 <alarm_pool_irq_handler+0x212>
100017d4:	f9b6 3008 	ldrsh.w	r3, [r6, #8]
100017d8:	2b00      	cmp	r3, #0
100017da:	9300      	str	r3, [sp, #0]
100017dc:	f2c0 8105 	blt.w	100019ea <alarm_pool_irq_handler+0x26a>
100017e0:	461a      	mov	r2, r3
100017e2:	6973      	ldr	r3, [r6, #20]
100017e4:	eb02 0442 	add.w	r4, r2, r2, lsl #1
100017e8:	eb03 03c4 	add.w	r3, r3, r4, lsl #3
100017ec:	e9d3 4702 	ldrd	r4, r7, [r3, #8]
100017f0:	f1b7 3fff 	cmp.w	r7, #4294967295	@ 0xffffffff
100017f4:	bf08      	it	eq
100017f6:	f1b4 3fff 	cmpeq.w	r4, #4294967295	@ 0xffffffff
100017fa:	d00e      	beq.n	1000181a <alarm_pool_irq_handler+0x9a>
100017fc:	eb05 018b 	add.w	r1, r5, fp, lsl #2
10001800:	6aab      	ldr	r3, [r5, #40]	@ 0x28
10001802:	690a      	ldr	r2, [r1, #16]
10001804:	1ad2      	subs	r2, r2, r3
10001806:	1ae3      	subs	r3, r4, r3
10001808:	4293      	cmp	r3, r2
1000180a:	d305      	bcc.n	10001818 <alarm_pool_irq_handler+0x98>
1000180c:	2301      	movs	r3, #1
1000180e:	6a2a      	ldr	r2, [r5, #32]
10001810:	fa03 f30b 	lsl.w	r3, r3, fp
10001814:	4213      	tst	r3, r2
10001816:	d100      	bne.n	1000181a <alarm_pool_irq_handler+0x9a>
10001818:	610c      	str	r4, [r1, #16]
1000181a:	4628      	mov	r0, r5
1000181c:	f000 fba8 	bl	10001f70 <timer_time_us_64>
10001820:	42a0      	cmp	r0, r4
10001822:	41b9      	sbcs	r1, r7
10001824:	f2c0 80e1 	blt.w	100019ea <alarm_pool_irq_handler+0x26a>
10001828:	f9b6 3008 	ldrsh.w	r3, [r6, #8]
1000182c:	9a01      	ldr	r2, [sp, #4]
1000182e:	2b00      	cmp	r3, #0
10001830:	9300      	str	r3, [sp, #0]
10001832:	63ea      	str	r2, [r5, #60]	@ 0x3c
10001834:	dbc6      	blt.n	100017c4 <alarm_pool_irq_handler+0x44>
10001836:	f8d6 8014 	ldr.w	r8, [r6, #20]
1000183a:	eb03 0943 	add.w	r9, r3, r3, lsl #1
1000183e:	4628      	mov	r0, r5
10001840:	eb08 07c9 	add.w	r7, r8, r9, lsl #3
10001844:	e9d7 4a02 	ldrd	r4, sl, [r7, #8]
10001848:	f000 fb92 	bl	10001f70 <timer_time_us_64>
1000184c:	42a0      	cmp	r0, r4
1000184e:	eb71 010a 	sbcs.w	r1, r1, sl
10001852:	dbb7      	blt.n	100017c4 <alarm_pool_irq_handler+0x44>
10001854:	f1ba 0f00 	cmp.w	sl, #0
10001858:	f2c0 80cd 	blt.w	100019f6 <alarm_pool_irq_handler+0x276>
1000185c:	e9d7 3104 	ldrd	r3, r1, [r7, #16]
10001860:	4a80      	ldr	r2, [pc, #512]	@ (10001a64 <alarm_pool_irq_handler+0x2e4>)
10001862:	4293      	cmp	r3, r2
10001864:	f000 8100 	beq.w	10001a68 <alarm_pool_irq_handler+0x2e8>
10001868:	887a      	ldrh	r2, [r7, #2]
1000186a:	f9b6 0008 	ldrsh.w	r0, [r6, #8]
1000186e:	b292      	uxth	r2, r2
10001870:	ea42 4000 	orr.w	r0, r2, r0, lsl #16
10001874:	4798      	blx	r3
10001876:	4602      	mov	r2, r0
10001878:	460b      	mov	r3, r1
1000187a:	ea52 0103 	orrs.w	r1, r2, r3
1000187e:	f000 80ba 	beq.w	100019f6 <alarm_pool_irq_handler+0x276>
10001882:	2b00      	cmp	r3, #0
10001884:	f280 80d5 	bge.w	10001a32 <alarm_pool_irq_handler+0x2b2>
10001888:	ebb4 0e02 	subs.w	lr, r4, r2
1000188c:	eb6a 0a03 	sbc.w	sl, sl, r3
10001890:	f938 3039 	ldrsh.w	r3, [r8, r9, lsl #3]
10001894:	e9c7 ea02 	strd	lr, sl, [r7, #8]
10001898:	2b00      	cmp	r3, #0
1000189a:	db93      	blt.n	100017c4 <alarm_pool_irq_handler+0x44>
1000189c:	6971      	ldr	r1, [r6, #20]
1000189e:	eb03 0243 	add.w	r2, r3, r3, lsl #1
100018a2:	eb01 02c2 	add.w	r2, r1, r2, lsl #3
100018a6:	e9d2 7002 	ldrd	r7, r0, [r2, #8]
100018aa:	45be      	cmp	lr, r7
100018ac:	eb7a 0c00 	sbcs.w	ip, sl, r0
100018b0:	ea4f 0243 	mov.w	r2, r3, lsl #1
100018b4:	db86      	blt.n	100017c4 <alarm_pool_irq_handler+0x44>
100018b6:	46b4      	mov	ip, r6
100018b8:	f82c 3f08 	strh.w	r3, [ip, #8]!
100018bc:	e006      	b.n	100018cc <alarm_pool_irq_handler+0x14c>
100018be:	eb03 0043 	add.w	r0, r3, r3, lsl #1
100018c2:	eb01 00c0 	add.w	r0, r1, r0, lsl #3
100018c6:	005a      	lsls	r2, r3, #1
100018c8:	e9d0 7002 	ldrd	r7, r0, [r0, #8]
100018cc:	45be      	cmp	lr, r7
100018ce:	441a      	add	r2, r3
100018d0:	eb7a 0000 	sbcs.w	r0, sl, r0
100018d4:	eb01 04c2 	add.w	r4, r1, r2, lsl #3
100018d8:	db04      	blt.n	100018e4 <alarm_pool_irq_handler+0x164>
100018da:	f931 3032 	ldrsh.w	r3, [r1, r2, lsl #3]
100018de:	46a4      	mov	ip, r4
100018e0:	2b00      	cmp	r3, #0
100018e2:	daec      	bge.n	100018be <alarm_pool_irq_handler+0x13e>
100018e4:	f828 3039 	strh.w	r3, [r8, r9, lsl #3]
100018e8:	9b00      	ldr	r3, [sp, #0]
100018ea:	f8ac 3000 	strh.w	r3, [ip]
100018ee:	88b3      	ldrh	r3, [r6, #4]
100018f0:	041b      	lsls	r3, r3, #16
100018f2:	f53f af6b 	bmi.w	100017cc <alarm_pool_irq_handler+0x4c>
100018f6:	6933      	ldr	r3, [r6, #16]
100018f8:	f3ef 8210 	mrs	r2, PRIMASK
100018fc:	b672      	cpsid	i
100018fe:	e8d3 0fcf 	ldaexb	r0, [r3]
10001902:	2101      	movs	r1, #1
10001904:	2800      	cmp	r0, #0
10001906:	d1fa      	bne.n	100018fe <alarm_pool_irq_handler+0x17e>
10001908:	e8c3 1f40 	strexb	r0, r1, [r3]
1000190c:	2800      	cmp	r0, #0
1000190e:	d1f6      	bne.n	100018fe <alarm_pool_irq_handler+0x17e>
10001910:	f3bf 8f5f 	dmb	sy
10001914:	f64f 74ff 	movw	r4, #65535	@ 0xffff
10001918:	88b0      	ldrh	r0, [r6, #4]
1000191a:	2300      	movs	r3, #0
1000191c:	6931      	ldr	r1, [r6, #16]
1000191e:	b200      	sxth	r0, r0
10001920:	80b4      	strh	r4, [r6, #4]
10001922:	e8c1 3f8f 	stlb	r3, [r1]
10001926:	f382 8810 	msr	PRIMASK, r2
1000192a:	4298      	cmp	r0, r3
1000192c:	f6ff af4e 	blt.w	100017cc <alarm_pool_irq_handler+0x4c>
10001930:	4607      	mov	r7, r0
10001932:	46a9      	mov	r9, r5
10001934:	6974      	ldr	r4, [r6, #20]
10001936:	f106 0808 	add.w	r8, r6, #8
1000193a:	eb07 0e47 	add.w	lr, r7, r7, lsl #1
1000193e:	eb04 03ce 	add.w	r3, r4, lr, lsl #3
10001942:	e9d3 5002 	ldrd	r5, r0, [r3, #8]
10001946:	f9b6 3008 	ldrsh.w	r3, [r6, #8]
1000194a:	46c4      	mov	ip, r8
1000194c:	2b00      	cmp	r3, #0
1000194e:	db13      	blt.n	10001978 <alarm_pool_irq_handler+0x1f8>
10001950:	46b2      	mov	sl, r6
10001952:	9700      	str	r7, [sp, #0]
10001954:	e004      	b.n	10001960 <alarm_pool_irq_handler+0x1e0>
10001956:	f934 3036 	ldrsh.w	r3, [r4, r6, lsl #3]
1000195a:	4694      	mov	ip, r2
1000195c:	2b00      	cmp	r3, #0
1000195e:	db09      	blt.n	10001974 <alarm_pool_irq_handler+0x1f4>
10001960:	eb03 0643 	add.w	r6, r3, r3, lsl #1
10001964:	eb04 02c6 	add.w	r2, r4, r6, lsl #3
10001968:	e9d2 7102 	ldrd	r7, r1, [r2, #8]
1000196c:	42bd      	cmp	r5, r7
1000196e:	eb70 0101 	sbcs.w	r1, r0, r1
10001972:	daf0      	bge.n	10001956 <alarm_pool_irq_handler+0x1d6>
10001974:	4656      	mov	r6, sl
10001976:	9f00      	ldr	r7, [sp, #0]
10001978:	f8ac 7000 	strh.w	r7, [ip]
1000197c:	f934 703e 	ldrsh.w	r7, [r4, lr, lsl #3]
10001980:	f824 303e 	strh.w	r3, [r4, lr, lsl #3]
10001984:	2f00      	cmp	r7, #0
10001986:	dad8      	bge.n	1000193a <alarm_pool_irq_handler+0x1ba>
10001988:	79b3      	ldrb	r3, [r6, #6]
1000198a:	464d      	mov	r5, r9
1000198c:	2b00      	cmp	r3, #0
1000198e:	f43f af21 	beq.w	100017d4 <alarm_pool_irq_handler+0x54>
10001992:	2300      	movs	r3, #0
10001994:	71b3      	strb	r3, [r6, #6]
10001996:	f9b6 3008 	ldrsh.w	r3, [r6, #8]
1000199a:	f106 0e08 	add.w	lr, r6, #8
1000199e:	1c5f      	adds	r7, r3, #1
100019a0:	9300      	str	r3, [sp, #0]
100019a2:	d022      	beq.n	100019ea <alarm_pool_irq_handler+0x26a>
100019a4:	469c      	mov	ip, r3
100019a6:	6970      	ldr	r0, [r6, #20]
100019a8:	e002      	b.n	100019b0 <alarm_pool_irq_handler+0x230>
100019aa:	468e      	mov	lr, r1
100019ac:	1c5a      	adds	r2, r3, #1
100019ae:	d016      	beq.n	100019de <alarm_pool_irq_handler+0x25e>
100019b0:	eb03 0243 	add.w	r2, r3, r3, lsl #1
100019b4:	eb00 01c2 	add.w	r1, r0, r2, lsl #3
100019b8:	884c      	ldrh	r4, [r1, #2]
100019ba:	461f      	mov	r7, r3
100019bc:	0424      	lsls	r4, r4, #16
100019be:	f930 3032 	ldrsh.w	r3, [r0, r2, lsl #3]
100019c2:	d5f2      	bpl.n	100019aa <alarm_pool_irq_handler+0x22a>
100019c4:	45bc      	cmp	ip, r7
100019c6:	ed81 8b02 	vstr	d8, [r1, #8]
100019ca:	d0ef      	beq.n	100019ac <alarm_pool_irq_handler+0x22c>
100019cc:	f8ae 3000 	strh.w	r3, [lr]
100019d0:	8931      	ldrh	r1, [r6, #8]
100019d2:	46bc      	mov	ip, r7
100019d4:	f820 1032 	strh.w	r1, [r0, r2, lsl #3]
100019d8:	1c5a      	adds	r2, r3, #1
100019da:	8137      	strh	r7, [r6, #8]
100019dc:	d1e8      	bne.n	100019b0 <alarm_pool_irq_handler+0x230>
100019de:	4663      	mov	r3, ip
100019e0:	2b00      	cmp	r3, #0
100019e2:	f8cd c000 	str.w	ip, [sp]
100019e6:	f6bf aefb 	bge.w	100017e0 <alarm_pool_irq_handler+0x60>
100019ea:	bf40      	sev
100019ec:	b005      	add	sp, #20
100019ee:	ecbd 8b02 	vpop	{d8}
100019f2:	e8bd 8ff0 	ldmia.w	sp!, {r4, r5, r6, r7, r8, r9, sl, fp, pc}
100019f6:	f838 3039 	ldrh.w	r3, [r8, r9, lsl #3]
100019fa:	8133      	strh	r3, [r6, #8]
100019fc:	6933      	ldr	r3, [r6, #16]
100019fe:	f3ef 8210 	mrs	r2, PRIMASK
10001a02:	b672      	cpsid	i
10001a04:	e8d3 0fcf 	ldaexb	r0, [r3]
10001a08:	2101      	movs	r1, #1
10001a0a:	2800      	cmp	r0, #0
10001a0c:	d1fa      	bne.n	10001a04 <alarm_pool_irq_handler+0x284>
10001a0e:	e8c3 1f40 	strexb	r0, r1, [r3]
10001a12:	2800      	cmp	r0, #0
10001a14:	d1f6      	bne.n	10001a04 <alarm_pool_irq_handler+0x284>
10001a16:	f3bf 8f5f 	dmb	sy
10001a1a:	8873      	ldrh	r3, [r6, #2]
10001a1c:	6931      	ldr	r1, [r6, #16]
10001a1e:	f828 3039 	strh.w	r3, [r8, r9, lsl #3]
10001a22:	9b00      	ldr	r3, [sp, #0]
10001a24:	8073      	strh	r3, [r6, #2]
10001a26:	2300      	movs	r3, #0
10001a28:	e8c1 3f8f 	stlb	r3, [r1]
10001a2c:	f382 8810 	msr	PRIMASK, r2
10001a30:	e6c8      	b.n	100017c4 <alarm_pool_irq_handler+0x44>
10001a32:	4628      	mov	r0, r5
10001a34:	e9cd 2302 	strd	r2, r3, [sp, #8]
10001a38:	f000 fa9a 	bl	10001f70 <timer_time_us_64>
10001a3c:	9a02      	ldr	r2, [sp, #8]
10001a3e:	9b03      	ldr	r3, [sp, #12]
10001a40:	eb10 0e02 	adds.w	lr, r0, r2
10001a44:	eb43 0a01 	adc.w	sl, r3, r1
10001a48:	e722      	b.n	10001890 <alarm_pool_irq_handler+0x110>
10001a4a:	bf00      	nop
10001a4c:	f3af 8000 	nop.w
10001a50:	ffffffff 	.word	0xffffffff
10001a54:	ffffffff 	.word	0xffffffff
10001a58:	400b8000 	.word	0x400b8000
10001a5c:	200007f0 	.word	0x200007f0
10001a60:	400b0000 	.word	0x400b0000
10001a64:	10001781 	.word	0x10001781
10001a68:	4608      	mov	r0, r1
10001a6a:	690b      	ldr	r3, [r1, #16]
10001a6c:	9102      	str	r1, [sp, #8]
10001a6e:	4798      	blx	r3
10001a70:	2800      	cmp	r0, #0
10001a72:	d0c0      	beq.n	100019f6 <alarm_pool_irq_handler+0x276>
10001a74:	9902      	ldr	r1, [sp, #8]
10001a76:	e9d1 2300 	ldrd	r2, r3, [r1]
10001a7a:	e6fe      	b.n	1000187a <alarm_pool_irq_handler+0xfa>

10001a7c <runtime_init_default_alarm_pool>:
10001a7c:	e92d 4ff8 	stmdb	sp!, {r3, r4, r5, r6, r7, r8, r9, sl, fp, lr}
10001a80:	4c36      	ldr	r4, [pc, #216]	@ (10001b5c <runtime_init_default_alarm_pool+0xe0>)
10001a82:	6925      	ldr	r5, [r4, #16]
10001a84:	b12d      	cbz	r5, 10001a92 <runtime_init_default_alarm_pool+0x16>
10001a86:	e8bd 4ff8 	ldmia.w	sp!, {r3, r4, r5, r6, r7, r8, r9, sl, fp, lr}
10001a8a:	210a      	movs	r1, #10
10001a8c:	4834      	ldr	r0, [pc, #208]	@ (10001b60 <runtime_init_default_alarm_pool+0xe4>)
10001a8e:	f7ff be2b 	b.w	100016e8 <lock_init>
10001a92:	f8df 80e4 	ldr.w	r8, [pc, #228]	@ 10001b78 <runtime_init_default_alarm_pool+0xfc>
10001a96:	2103      	movs	r1, #3
10001a98:	4640      	mov	r0, r8
10001a9a:	f000 fa57 	bl	10001f4c <timer_hardware_alarm_claim>
10001a9e:	2603      	movs	r6, #3
10001aa0:	f8c4 800c 	str.w	r8, [r4, #12]
10001aa4:	f7ff fd8a 	bl	100015bc <next_striped_spin_lock_num>
10001aa8:	f04f 4c50 	mov.w	ip, #3489660928	@ 0xd0000000
10001aac:	4b2d      	ldr	r3, [pc, #180]	@ (10001b64 <runtime_init_default_alarm_pool+0xe8>)
10001aae:	7026      	strb	r6, [r4, #0]
10001ab0:	4403      	add	r3, r0
10001ab2:	6123      	str	r3, [r4, #16]
10001ab4:	f8dc 3000 	ldr.w	r3, [ip]
10001ab8:	210f      	movs	r1, #15
10001aba:	7063      	strb	r3, [r4, #1]
10001abc:	6963      	ldr	r3, [r4, #20]
10001abe:	8061      	strh	r1, [r4, #2]
10001ac0:	831d      	strh	r5, [r3, #24]
10001ac2:	f04f 0504 	mov.w	r5, #4
10001ac6:	f8a3 5078 	strh.w	r5, [r3, #120]	@ 0x78
10001aca:	f04f 0505 	mov.w	r5, #5
10001ace:	f8a3 5090 	strh.w	r5, [r3, #144]	@ 0x90
10001ad2:	f04f 0506 	mov.w	r5, #6
10001ad6:	f8a3 50a8 	strh.w	r5, [r3, #168]	@ 0xa8
10001ada:	f04f 0507 	mov.w	r5, #7
10001ade:	210e      	movs	r1, #14
10001ae0:	f64f 72ff 	movw	r2, #65535	@ 0xffff
10001ae4:	2708      	movs	r7, #8
10001ae6:	f04f 0e0a 	mov.w	lr, #10
10001aea:	f8a3 50c0 	strh.w	r5, [r3, #192]	@ 0xc0
10001aee:	f04f 0901 	mov.w	r9, #1
10001af2:	f04f 0c0c 	mov.w	ip, #12
10001af6:	f04f 0b02 	mov.w	fp, #2
10001afa:	f04f 0a09 	mov.w	sl, #9
10001afe:	200d      	movs	r0, #13
10001b00:	f04f 050b 	mov.w	r5, #11
10001b04:	f8a3 1168 	strh.w	r1, [r3, #360]	@ 0x168
10001b08:	4917      	ldr	r1, [pc, #92]	@ (10001b68 <runtime_init_default_alarm_pool+0xec>)
10001b0a:	80a2      	strh	r2, [r4, #4]
10001b0c:	f8a3 e108 	strh.w	lr, [r3, #264]	@ 0x108
10001b10:	60a1      	str	r1, [r4, #8]
10001b12:	f8a3 b048 	strh.w	fp, [r3, #72]	@ 0x48
10001b16:	f8a3 a0f0 	strh.w	sl, [r3, #240]	@ 0xf0
10001b1a:	f8a3 5120 	strh.w	r5, [r3, #288]	@ 0x120
10001b1e:	f8a3 c138 	strh.w	ip, [r3, #312]	@ 0x138
10001b22:	f8a3 0150 	strh.w	r0, [r3, #336]	@ 0x150
10001b26:	f8a3 9030 	strh.w	r9, [r3, #48]	@ 0x30
10001b2a:	f8a3 6060 	strh.w	r6, [r3, #96]	@ 0x60
10001b2e:	f8a3 70d8 	strh.w	r7, [r3, #216]	@ 0xd8
10001b32:	801a      	strh	r2, [r3, #0]
10001b34:	4b0d      	ldr	r3, [pc, #52]	@ (10001b6c <runtime_init_default_alarm_pool+0xf0>)
10001b36:	4630      	mov	r0, r6
10001b38:	f8c8 7020 	str.w	r7, [r8, #32]
10001b3c:	490c      	ldr	r1, [pc, #48]	@ (10001b70 <runtime_init_default_alarm_pool+0xf4>)
10001b3e:	60dc      	str	r4, [r3, #12]
10001b40:	f7ff fda2 	bl	10001688 <irq_set_exclusive_handler>
10001b44:	4649      	mov	r1, r9
10001b46:	4630      	mov	r0, r6
10001b48:	f7ff fd78 	bl	1000163c <irq_set_enabled>
10001b4c:	4b09      	ldr	r3, [pc, #36]	@ (10001b74 <runtime_init_default_alarm_pool+0xf8>)
10001b4e:	210a      	movs	r1, #10
10001b50:	641f      	str	r7, [r3, #64]	@ 0x40
10001b52:	4803      	ldr	r0, [pc, #12]	@ (10001b60 <runtime_init_default_alarm_pool+0xe4>)
10001b54:	e8bd 4ff8 	ldmia.w	sp!, {r3, r4, r5, r6, r7, r8, r9, sl, fp, lr}
10001b58:	f7ff bdc6 	b.w	100016e8 <lock_init>
10001b5c:	200004bc 	.word	0x200004bc
10001b60:	20000810 	.word	0x20000810
10001b64:	20000684 	.word	0x20000684
10001b68:	0010ffff 	.word	0x0010ffff
10001b6c:	200007f0 	.word	0x200007f0
10001b70:	10001781 	.word	0x10001781
10001b74:	400b2000 	.word	0x400b2000
10001b78:	400b0000 	.word	0x400b0000

10001b7c <alarm_pool_add_alarm_at_force_in_context>:
10001b7c:	4601      	mov	r1, r0
10001b7e:	b5f0      	push	{r4, r5, r6, r7, lr}
10001b80:	6900      	ldr	r0, [r0, #16]
10001b82:	f3ef 8710 	mrs	r7, PRIMASK
10001b86:	b672      	cpsid	i
10001b88:	e8d0 5fcf 	ldaexb	r5, [r0]
10001b8c:	2401      	movs	r4, #1
10001b8e:	2d00      	cmp	r5, #0
10001b90:	d1fa      	bne.n	10001b88 <alarm_pool_add_alarm_at_force_in_context+0xc>
10001b92:	e8c0 4f45 	strexb	r5, r4, [r0]
10001b96:	2d00      	cmp	r5, #0
10001b98:	d1f6      	bne.n	10001b88 <alarm_pool_add_alarm_at_force_in_context+0xc>
10001b9a:	f3bf 8f5f 	dmb	sy
10001b9e:	f9b1 e002 	ldrsh.w	lr, [r1, #2]
10001ba2:	694c      	ldr	r4, [r1, #20]
10001ba4:	eb0e 0c4e 	add.w	ip, lr, lr, lsl #1
10001ba8:	f1be 0f00 	cmp.w	lr, #0
10001bac:	ea4f 05cc 	mov.w	r5, ip, lsl #3
10001bb0:	6908      	ldr	r0, [r1, #16]
10001bb2:	eb04 0ccc 	add.w	ip, r4, ip, lsl #3
10001bb6:	db3c      	blt.n	10001c32 <alarm_pool_add_alarm_at_force_in_context+0xb6>
10001bb8:	5b66      	ldrh	r6, [r4, r5]
10001bba:	804e      	strh	r6, [r1, #2]
10001bbc:	2600      	movs	r6, #0
10001bbe:	e8c0 6f8f 	stlb	r6, [r0]
10001bc2:	f387 8810 	msr	PRIMASK, r7
10001bc6:	f8bc 0002 	ldrh.w	r0, [ip, #2]
10001bca:	e9cc 2302 	strd	r2, r3, [ip, #8]
10001bce:	3001      	adds	r0, #1
10001bd0:	f3c0 000e 	ubfx	r0, r0, #0, #15
10001bd4:	2801      	cmp	r0, #1
10001bd6:	bf38      	it	cc
10001bd8:	2001      	movcc	r0, #1
10001bda:	9b05      	ldr	r3, [sp, #20]
10001bdc:	f8ac 0002 	strh.w	r0, [ip, #2]
10001be0:	f8cc 3010 	str.w	r3, [ip, #16]
10001be4:	9b06      	ldr	r3, [sp, #24]
10001be6:	ea40 400e 	orr.w	r0, r0, lr, lsl #16
10001bea:	f8cc 3014 	str.w	r3, [ip, #20]
10001bee:	690b      	ldr	r3, [r1, #16]
10001bf0:	f3ef 8210 	mrs	r2, PRIMASK
10001bf4:	b672      	cpsid	i
10001bf6:	e8d3 cfcf 	ldaexb	ip, [r3]
10001bfa:	2701      	movs	r7, #1
10001bfc:	f1bc 0f00 	cmp.w	ip, #0
10001c00:	d1f9      	bne.n	10001bf6 <alarm_pool_add_alarm_at_force_in_context+0x7a>
10001c02:	e8c3 7f4c 	strexb	ip, r7, [r3]
10001c06:	f1bc 0f00 	cmp.w	ip, #0
10001c0a:	d1f4      	bne.n	10001bf6 <alarm_pool_add_alarm_at_force_in_context+0x7a>
10001c0c:	f3bf 8f5f 	dmb	sy
10001c10:	888b      	ldrh	r3, [r1, #4]
10001c12:	5363      	strh	r3, [r4, r5]
10001c14:	f8a1 e004 	strh.w	lr, [r1, #4]
10001c18:	690b      	ldr	r3, [r1, #16]
10001c1a:	e8c3 6f8f 	stlb	r6, [r3]
10001c1e:	f382 8810 	msr	PRIMASK, r2
10001c22:	2201      	movs	r2, #1
10001c24:	68cb      	ldr	r3, [r1, #12]
10001c26:	7809      	ldrb	r1, [r1, #0]
10001c28:	f503 5301 	add.w	r3, r3, #8256	@ 0x2040
10001c2c:	408a      	lsls	r2, r1
10001c2e:	605a      	str	r2, [r3, #4]
10001c30:	bdf0      	pop	{r4, r5, r6, r7, pc}
10001c32:	2300      	movs	r3, #0
10001c34:	e8c0 3f8f 	stlb	r3, [r0]
10001c38:	f387 8810 	msr	PRIMASK, r7
10001c3c:	f04f 30ff 	mov.w	r0, #4294967295	@ 0xffffffff
10001c40:	bdf0      	pop	{r4, r5, r6, r7, pc}
10001c42:	bf00      	nop

10001c44 <alarm_pool_cancel_alarm>:
10001c44:	4603      	mov	r3, r0
10001c46:	8940      	ldrh	r0, [r0, #10]
10001c48:	ebb0 4f21 	cmp.w	r0, r1, asr #16
10001c4c:	dd37      	ble.n	10001cbe <alarm_pool_cancel_alarm+0x7a>
10001c4e:	6958      	ldr	r0, [r3, #20]
10001c50:	140a      	asrs	r2, r1, #16
10001c52:	eb02 0242 	add.w	r2, r2, r2, lsl #1
10001c56:	b510      	push	{r4, lr}
10001c58:	eb00 00c2 	add.w	r0, r0, r2, lsl #3
10001c5c:	691c      	ldr	r4, [r3, #16]
10001c5e:	f3ef 8c10 	mrs	ip, PRIMASK
10001c62:	b672      	cpsid	i
10001c64:	e8d4 efcf 	ldaexb	lr, [r4]
10001c68:	2201      	movs	r2, #1
10001c6a:	f1be 0f00 	cmp.w	lr, #0
10001c6e:	d1f9      	bne.n	10001c64 <alarm_pool_cancel_alarm+0x20>
10001c70:	e8c4 2f4e 	strexb	lr, r2, [r4]
10001c74:	f1be 0f00 	cmp.w	lr, #0
10001c78:	d1f4      	bne.n	10001c64 <alarm_pool_cancel_alarm+0x20>
10001c7a:	f3bf 8f5f 	dmb	sy
10001c7e:	8842      	ldrh	r2, [r0, #2]
10001c80:	b289      	uxth	r1, r1
10001c82:	b292      	uxth	r2, r2
10001c84:	428a      	cmp	r2, r1
10001c86:	d007      	beq.n	10001c98 <alarm_pool_cancel_alarm+0x54>
10001c88:	2200      	movs	r2, #0
10001c8a:	691b      	ldr	r3, [r3, #16]
10001c8c:	e8c3 2f8f 	stlb	r2, [r3]
10001c90:	f38c 8810 	msr	PRIMASK, ip
10001c94:	2000      	movs	r0, #0
10001c96:	bd10      	pop	{r4, pc}
10001c98:	f442 4200 	orr.w	r2, r2, #32768	@ 0x8000
10001c9c:	8042      	strh	r2, [r0, #2]
10001c9e:	2101      	movs	r1, #1
10001ca0:	2200      	movs	r2, #0
10001ca2:	6918      	ldr	r0, [r3, #16]
10001ca4:	7199      	strb	r1, [r3, #6]
10001ca6:	e8c0 2f8f 	stlb	r2, [r0]
10001caa:	f38c 8810 	msr	PRIMASK, ip
10001cae:	781c      	ldrb	r4, [r3, #0]
10001cb0:	68da      	ldr	r2, [r3, #12]
10001cb2:	4608      	mov	r0, r1
10001cb4:	f502 5301 	add.w	r3, r2, #8256	@ 0x2040
10001cb8:	40a1      	lsls	r1, r4
10001cba:	6059      	str	r1, [r3, #4]
10001cbc:	bd10      	pop	{r4, pc}
10001cbe:	2000      	movs	r0, #0
10001cc0:	4770      	bx	lr
10001cc2:	bf00      	nop

10001cc4 <sleep_us>:
10001cc4:	e92d 41f0 	stmdb	sp!, {r4, r5, r6, r7, r8, lr}
10001cc8:	b082      	sub	sp, #8
10001cca:	4604      	mov	r4, r0
10001ccc:	460e      	mov	r6, r1
10001cce:	f000 f957 	bl	10001f80 <time_us_64>
10001cd2:	f04f 32ff 	mov.w	r2, #4294967295	@ 0xffffffff
10001cd6:	f06f 4300 	mvn.w	r3, #2147483648	@ 0x80000000
10001cda:	1824      	adds	r4, r4, r0
10001cdc:	eb46 0601 	adc.w	r6, r6, r1
10001ce0:	42a2      	cmp	r2, r4
10001ce2:	eb73 0106 	sbcs.w	r1, r3, r6
10001ce6:	bf3c      	itt	cc
10001ce8:	4614      	movcc	r4, r2
10001cea:	461e      	movcc	r6, r3
10001cec:	1fa5      	subs	r5, r4, #6
10001cee:	f146 37ff 	adc.w	r7, r6, #4294967295	@ 0xffffffff
10001cf2:	42ac      	cmp	r4, r5
10001cf4:	eb76 0307 	sbcs.w	r3, r6, r7
10001cf8:	bf3c      	itt	cc
10001cfa:	2500      	movcc	r5, #0
10001cfc:	462f      	movcc	r7, r5
10001cfe:	f000 f93f 	bl	10001f80 <time_us_64>
10001d02:	1a28      	subs	r0, r5, r0
10001d04:	eb67 0c01 	sbc.w	ip, r7, r1
10001d08:	2801      	cmp	r0, #1
10001d0a:	f17c 0c00 	sbcs.w	ip, ip, #0
10001d0e:	da06      	bge.n	10001d1e <sleep_us+0x5a>
10001d10:	4620      	mov	r0, r4
10001d12:	4631      	mov	r1, r6
10001d14:	b002      	add	sp, #8
10001d16:	e8bd 41f0 	ldmia.w	sp!, {r4, r5, r6, r7, r8, lr}
10001d1a:	f000 b93b 	b.w	10001f94 <busy_wait_until>
10001d1e:	f000 f92f 	bl	10001f80 <time_us_64>
10001d22:	4285      	cmp	r5, r0
10001d24:	eb67 0101 	sbc.w	r1, r7, r1
10001d28:	2900      	cmp	r1, #0
10001d2a:	db0a      	blt.n	10001d42 <sleep_us+0x7e>
10001d2c:	2100      	movs	r1, #0
10001d2e:	4b17      	ldr	r3, [pc, #92]	@ (10001d8c <sleep_us+0xc8>)
10001d30:	462a      	mov	r2, r5
10001d32:	9300      	str	r3, [sp, #0]
10001d34:	4816      	ldr	r0, [pc, #88]	@ (10001d90 <sleep_us+0xcc>)
10001d36:	463b      	mov	r3, r7
10001d38:	9101      	str	r1, [sp, #4]
10001d3a:	f7ff ff1f 	bl	10001b7c <alarm_pool_add_alarm_at_force_in_context>
10001d3e:	3001      	adds	r0, #1
10001d40:	d0e6      	beq.n	10001d10 <sleep_us+0x4c>
10001d42:	f04f 0c00 	mov.w	ip, #0
10001d46:	4a13      	ldr	r2, [pc, #76]	@ (10001d94 <sleep_us+0xd0>)
10001d48:	4913      	ldr	r1, [pc, #76]	@ (10001d98 <sleep_us+0xd4>)
10001d4a:	6a53      	ldr	r3, [r2, #36]	@ 0x24
10001d4c:	429f      	cmp	r7, r3
10001d4e:	d804      	bhi.n	10001d5a <sleep_us+0x96>
10001d50:	6a90      	ldr	r0, [r2, #40]	@ 0x28
10001d52:	42a8      	cmp	r0, r5
10001d54:	d2dc      	bcs.n	10001d10 <sleep_us+0x4c>
10001d56:	429f      	cmp	r7, r3
10001d58:	d1da      	bne.n	10001d10 <sleep_us+0x4c>
10001d5a:	680b      	ldr	r3, [r1, #0]
10001d5c:	f3ef 8010 	mrs	r0, PRIMASK
10001d60:	b672      	cpsid	i
10001d62:	e8d3 8fcf 	ldaexb	r8, [r3]
10001d66:	f05f 0e01 	movs.w	lr, #1
10001d6a:	f1b8 0f00 	cmp.w	r8, #0
10001d6e:	d1f8      	bne.n	10001d62 <sleep_us+0x9e>
10001d70:	e8c3 ef48 	strexb	r8, lr, [r3]
10001d74:	f1b8 0f00 	cmp.w	r8, #0
10001d78:	d1f3      	bne.n	10001d62 <sleep_us+0x9e>
10001d7a:	f3bf 8f5f 	dmb	sy
10001d7e:	680b      	ldr	r3, [r1, #0]
10001d80:	e8c3 cf8f 	stlb	ip, [r3]
10001d84:	f380 8810 	msr	PRIMASK, r0
10001d88:	bf20      	wfe
10001d8a:	e7de      	b.n	10001d4a <sleep_us+0x86>
10001d8c:	10001741 	.word	0x10001741
10001d90:	200004bc 	.word	0x200004bc
10001d94:	400b0000 	.word	0x400b0000
10001d98:	20000810 	.word	0x20000810

10001d9c <sleep_ms>:
10001d9c:	e92d 41f0 	stmdb	sp!, {r4, r5, r6, r7, r8, lr}
10001da0:	b082      	sub	sp, #8
10001da2:	4606      	mov	r6, r0
10001da4:	f000 f8ec 	bl	10001f80 <time_us_64>
10001da8:	f44f 737a 	mov.w	r3, #1000	@ 0x3e8
10001dac:	4604      	mov	r4, r0
10001dae:	f04f 30ff 	mov.w	r0, #4294967295	@ 0xffffffff
10001db2:	f06f 4200 	mvn.w	r2, #2147483648	@ 0x80000000
10001db6:	fbe6 4103 	umlal	r4, r1, r6, r3
10001dba:	42a0      	cmp	r0, r4
10001dbc:	eb72 0301 	sbcs.w	r3, r2, r1
10001dc0:	bf3a      	itte	cc
10001dc2:	4604      	movcc	r4, r0
10001dc4:	4615      	movcc	r5, r2
10001dc6:	460d      	movcs	r5, r1
10001dc8:	1fa6      	subs	r6, r4, #6
10001dca:	f145 37ff 	adc.w	r7, r5, #4294967295	@ 0xffffffff
10001dce:	42b4      	cmp	r4, r6
10001dd0:	eb75 0307 	sbcs.w	r3, r5, r7
10001dd4:	bf3c      	itt	cc
10001dd6:	2600      	movcc	r6, #0
10001dd8:	4637      	movcc	r7, r6
10001dda:	f000 f8d1 	bl	10001f80 <time_us_64>
10001dde:	1a30      	subs	r0, r6, r0
10001de0:	eb67 0101 	sbc.w	r1, r7, r1
10001de4:	2801      	cmp	r0, #1
10001de6:	f171 0100 	sbcs.w	r1, r1, #0
10001dea:	da06      	bge.n	10001dfa <sleep_ms+0x5e>
10001dec:	4620      	mov	r0, r4
10001dee:	4629      	mov	r1, r5
10001df0:	b002      	add	sp, #8
10001df2:	e8bd 41f0 	ldmia.w	sp!, {r4, r5, r6, r7, r8, lr}
10001df6:	f000 b8cd 	b.w	10001f94 <busy_wait_until>
10001dfa:	f000 f8c1 	bl	10001f80 <time_us_64>
10001dfe:	4286      	cmp	r6, r0
10001e00:	eb67 0101 	sbc.w	r1, r7, r1
10001e04:	2900      	cmp	r1, #0
10001e06:	db0a      	blt.n	10001e1e <sleep_ms+0x82>
10001e08:	2100      	movs	r1, #0
10001e0a:	4b17      	ldr	r3, [pc, #92]	@ (10001e68 <sleep_ms+0xcc>)
10001e0c:	4632      	mov	r2, r6
10001e0e:	9300      	str	r3, [sp, #0]
10001e10:	4816      	ldr	r0, [pc, #88]	@ (10001e6c <sleep_ms+0xd0>)
10001e12:	463b      	mov	r3, r7
10001e14:	9101      	str	r1, [sp, #4]
10001e16:	f7ff feb1 	bl	10001b7c <alarm_pool_add_alarm_at_force_in_context>
10001e1a:	3001      	adds	r0, #1
10001e1c:	d0e6      	beq.n	10001dec <sleep_ms+0x50>
10001e1e:	f04f 0c00 	mov.w	ip, #0
10001e22:	4a13      	ldr	r2, [pc, #76]	@ (10001e70 <sleep_ms+0xd4>)
10001e24:	4913      	ldr	r1, [pc, #76]	@ (10001e74 <sleep_ms+0xd8>)
10001e26:	6a53      	ldr	r3, [r2, #36]	@ 0x24
10001e28:	429f      	cmp	r7, r3
10001e2a:	d804      	bhi.n	10001e36 <sleep_ms+0x9a>
10001e2c:	6a90      	ldr	r0, [r2, #40]	@ 0x28
10001e2e:	42b0      	cmp	r0, r6
10001e30:	d2dc      	bcs.n	10001dec <sleep_ms+0x50>
10001e32:	429f      	cmp	r7, r3
10001e34:	d1da      	bne.n	10001dec <sleep_ms+0x50>
10001e36:	680b      	ldr	r3, [r1, #0]
10001e38:	f3ef 8010 	mrs	r0, PRIMASK
10001e3c:	b672      	cpsid	i
10001e3e:	e8d3 8fcf 	ldaexb	r8, [r3]
10001e42:	f05f 0e01 	movs.w	lr, #1
10001e46:	f1b8 0f00 	cmp.w	r8, #0
10001e4a:	d1f8      	bne.n	10001e3e <sleep_ms+0xa2>
10001e4c:	e8c3 ef48 	strexb	r8, lr, [r3]
10001e50:	f1b8 0f00 	cmp.w	r8, #0
10001e54:	d1f3      	bne.n	10001e3e <sleep_ms+0xa2>
10001e56:	f3bf 8f5f 	dmb	sy
10001e5a:	680b      	ldr	r3, [r1, #0]
10001e5c:	e8c3 cf8f 	stlb	ip, [r3]
10001e60:	f380 8810 	msr	PRIMASK, r0
10001e64:	bf20      	wfe
10001e66:	e7de      	b.n	10001e26 <sleep_ms+0x8a>
10001e68:	10001741 	.word	0x10001741
10001e6c:	200004bc 	.word	0x200004bc
10001e70:	400b0000 	.word	0x400b0000
10001e74:	20000810 	.word	0x20000810

10001e78 <best_effort_wfe_or_timeout>:
10001e78:	e92d 43f0 	stmdb	sp!, {r4, r5, r6, r7, r8, r9, lr}
10001e7c:	4606      	mov	r6, r0
10001e7e:	460d      	mov	r5, r1
10001e80:	b083      	sub	sp, #12
10001e82:	f3ef 8405 	mrs	r4, IPSR
10001e86:	b2e4      	uxtb	r4, r4
10001e88:	b13c      	cbz	r4, 10001e9a <best_effort_wfe_or_timeout+0x22>
10001e8a:	4b2d      	ldr	r3, [pc, #180]	@ (10001f40 <best_effort_wfe_or_timeout+0xc8>)
10001e8c:	6a5a      	ldr	r2, [r3, #36]	@ 0x24
10001e8e:	42aa      	cmp	r2, r5
10001e90:	d21c      	bcs.n	10001ecc <best_effort_wfe_or_timeout+0x54>
10001e92:	2000      	movs	r0, #0
10001e94:	b003      	add	sp, #12
10001e96:	e8bd 83f0 	ldmia.w	sp!, {r4, r5, r6, r7, r8, r9, pc}
10001e9a:	4f2a      	ldr	r7, [pc, #168]	@ (10001f44 <best_effort_wfe_or_timeout+0xcc>)
10001e9c:	f8d7 900c 	ldr.w	r9, [r7, #12]
10001ea0:	f897 8000 	ldrb.w	r8, [r7]
10001ea4:	4648      	mov	r0, r9
10001ea6:	f000 f863 	bl	10001f70 <timer_time_us_64>
10001eaa:	f108 0804 	add.w	r8, r8, #4
10001eae:	f859 3028 	ldr.w	r3, [r9, r8, lsl #2]
10001eb2:	1a1b      	subs	r3, r3, r0
10001eb4:	1a30      	subs	r0, r6, r0
10001eb6:	eb65 0101 	sbc.w	r1, r5, r1
10001eba:	4298      	cmp	r0, r3
10001ebc:	f171 0100 	sbcs.w	r1, r1, #0
10001ec0:	db10      	blt.n	10001ee4 <best_effort_wfe_or_timeout+0x6c>
10001ec2:	bf20      	wfe
10001ec4:	4b1e      	ldr	r3, [pc, #120]	@ (10001f40 <best_effort_wfe_or_timeout+0xc8>)
10001ec6:	6a5a      	ldr	r2, [r3, #36]	@ 0x24
10001ec8:	42aa      	cmp	r2, r5
10001eca:	d3e2      	bcc.n	10001e92 <best_effort_wfe_or_timeout+0x1a>
10001ecc:	bf14      	ite	ne
10001ece:	2401      	movne	r4, #1
10001ed0:	2400      	moveq	r4, #0
10001ed2:	6a9b      	ldr	r3, [r3, #40]	@ 0x28
10001ed4:	42b3      	cmp	r3, r6
10001ed6:	bf34      	ite	cc
10001ed8:	4620      	movcc	r0, r4
10001eda:	f044 0001 	orrcs.w	r0, r4, #1
10001ede:	b003      	add	sp, #12
10001ee0:	e8bd 83f0 	ldmia.w	sp!, {r4, r5, r6, r7, r8, r9, pc}
10001ee4:	f000 f84c 	bl	10001f80 <time_us_64>
10001ee8:	4286      	cmp	r6, r0
10001eea:	eb65 0101 	sbc.w	r1, r5, r1
10001eee:	2900      	cmp	r1, #0
10001ef0:	db14      	blt.n	10001f1c <best_effort_wfe_or_timeout+0xa4>
10001ef2:	4b15      	ldr	r3, [pc, #84]	@ (10001f48 <best_effort_wfe_or_timeout+0xd0>)
10001ef4:	4638      	mov	r0, r7
10001ef6:	e9cd 3400 	strd	r3, r4, [sp]
10001efa:	4632      	mov	r2, r6
10001efc:	462b      	mov	r3, r5
10001efe:	f7ff fe3d 	bl	10001b7c <alarm_pool_add_alarm_at_force_in_context>
10001f02:	1e01      	subs	r1, r0, #0
10001f04:	dd0a      	ble.n	10001f1c <best_effort_wfe_or_timeout+0xa4>
10001f06:	4b0e      	ldr	r3, [pc, #56]	@ (10001f40 <best_effort_wfe_or_timeout+0xc8>)
10001f08:	6a5a      	ldr	r2, [r3, #36]	@ 0x24
10001f0a:	42aa      	cmp	r2, r5
10001f0c:	d316      	bcc.n	10001f3c <best_effort_wfe_or_timeout+0xc4>
10001f0e:	6a9b      	ldr	r3, [r3, #40]	@ 0x28
10001f10:	42b3      	cmp	r3, r6
10001f12:	d311      	bcc.n	10001f38 <best_effort_wfe_or_timeout+0xc0>
10001f14:	480b      	ldr	r0, [pc, #44]	@ (10001f44 <best_effort_wfe_or_timeout+0xcc>)
10001f16:	f7ff fe95 	bl	10001c44 <alarm_pool_cancel_alarm>
10001f1a:	e7b6      	b.n	10001e8a <best_effort_wfe_or_timeout+0x12>
10001f1c:	4b08      	ldr	r3, [pc, #32]	@ (10001f40 <best_effort_wfe_or_timeout+0xc8>)
10001f1e:	6a5c      	ldr	r4, [r3, #36]	@ 0x24
10001f20:	42ac      	cmp	r4, r5
10001f22:	d3b6      	bcc.n	10001e92 <best_effort_wfe_or_timeout+0x1a>
10001f24:	1b64      	subs	r4, r4, r5
10001f26:	bf18      	it	ne
10001f28:	2401      	movne	r4, #1
10001f2a:	6a9b      	ldr	r3, [r3, #40]	@ 0x28
10001f2c:	42b3      	cmp	r3, r6
10001f2e:	bf34      	ite	cc
10001f30:	4620      	movcc	r0, r4
10001f32:	f044 0001 	orrcs.w	r0, r4, #1
10001f36:	e7ad      	b.n	10001e94 <best_effort_wfe_or_timeout+0x1c>
10001f38:	42aa      	cmp	r2, r5
10001f3a:	d1eb      	bne.n	10001f14 <best_effort_wfe_or_timeout+0x9c>
10001f3c:	bf20      	wfe
10001f3e:	e7e9      	b.n	10001f14 <best_effort_wfe_or_timeout+0x9c>
10001f40:	400b0000 	.word	0x400b0000
10001f44:	200004bc 	.word	0x200004bc
10001f48:	10001741 	.word	0x10001741

10001f4c <timer_hardware_alarm_claim>:
10001f4c:	b410      	push	{r4}
10001f4e:	4b05      	ldr	r3, [pc, #20]	@ (10001f64 <timer_hardware_alarm_claim+0x18>)
10001f50:	4c05      	ldr	r4, [pc, #20]	@ (10001f68 <timer_hardware_alarm_claim+0x1c>)
10001f52:	4a06      	ldr	r2, [pc, #24]	@ (10001f6c <timer_hardware_alarm_claim+0x20>)
10001f54:	42a0      	cmp	r0, r4
10001f56:	bf14      	ite	ne
10001f58:	4618      	movne	r0, r3
10001f5a:	1c58      	addeq	r0, r3, #1
10001f5c:	f85d 4b04 	ldr.w	r4, [sp], #4
10001f60:	f7ff bb00 	b.w	10001564 <hw_claim_or_assert>
10001f64:	200007b0 	.word	0x200007b0
10001f68:	400b8000 	.word	0x400b8000
10001f6c:	10002fbc 	.word	0x10002fbc

10001f70 <timer_time_us_64>:
10001f70:	4603      	mov	r3, r0
10001f72:	6a41      	ldr	r1, [r0, #36]	@ 0x24
10001f74:	460a      	mov	r2, r1
10001f76:	6a98      	ldr	r0, [r3, #40]	@ 0x28
10001f78:	6a59      	ldr	r1, [r3, #36]	@ 0x24
10001f7a:	428a      	cmp	r2, r1
10001f7c:	d1fa      	bne.n	10001f74 <timer_time_us_64+0x4>
10001f7e:	4770      	bx	lr

10001f80 <time_us_64>:
10001f80:	4b03      	ldr	r3, [pc, #12]	@ (10001f90 <time_us_64+0x10>)
10001f82:	6a59      	ldr	r1, [r3, #36]	@ 0x24
10001f84:	460a      	mov	r2, r1
10001f86:	6a98      	ldr	r0, [r3, #40]	@ 0x28
10001f88:	6a59      	ldr	r1, [r3, #36]	@ 0x24
10001f8a:	4291      	cmp	r1, r2
10001f8c:	d1fa      	bne.n	10001f84 <time_us_64+0x4>
10001f8e:	4770      	bx	lr
10001f90:	400b0000 	.word	0x400b0000

10001f94 <busy_wait_until>:
10001f94:	4a07      	ldr	r2, [pc, #28]	@ (10001fb4 <busy_wait_until+0x20>)
10001f96:	6a53      	ldr	r3, [r2, #36]	@ 0x24
10001f98:	4299      	cmp	r1, r3
10001f9a:	d8fc      	bhi.n	10001f96 <busy_wait_until+0x2>
10001f9c:	4299      	cmp	r1, r3
10001f9e:	d107      	bne.n	10001fb0 <busy_wait_until+0x1c>
10001fa0:	4b04      	ldr	r3, [pc, #16]	@ (10001fb4 <busy_wait_until+0x20>)
10001fa2:	e002      	b.n	10001faa <busy_wait_until+0x16>
10001fa4:	6a5a      	ldr	r2, [r3, #36]	@ 0x24
10001fa6:	4291      	cmp	r1, r2
10001fa8:	d102      	bne.n	10001fb0 <busy_wait_until+0x1c>
10001faa:	6a9a      	ldr	r2, [r3, #40]	@ 0x28
10001fac:	4290      	cmp	r0, r2
10001fae:	d8f9      	bhi.n	10001fa4 <busy_wait_until+0x10>
10001fb0:	4770      	bx	lr
10001fb2:	bf00      	nop
10001fb4:	400b0000 	.word	0x400b0000

10001fb8 <clock_configure_undivided>:
10001fb8:	eb00 0c40 	add.w	ip, r0, r0, lsl #1
10001fbc:	ea4f 0c8c 	mov.w	ip, ip, lsl #2
10001fc0:	f10c 4c80 	add.w	ip, ip, #1073741824	@ 0x40000000
10001fc4:	f50c 3c80 	add.w	ip, ip, #65536	@ 0x10000
10001fc8:	b5f0      	push	{r4, r5, r6, r7, lr}
10001fca:	4616      	mov	r6, r2
10001fcc:	f8dc 2004 	ldr.w	r2, [ip, #4]
10001fd0:	1f05      	subs	r5, r0, #4
10001fd2:	f5b2 3f80 	cmp.w	r2, #65536	@ 0x10000
10001fd6:	bf38      	it	cc
10001fd8:	f44f 3280 	movcc.w	r2, #65536	@ 0x10000
10001fdc:	b2ed      	uxtb	r5, r5
10001fde:	bf38      	it	cc
10001fe0:	f8cc 2004 	strcc.w	r2, [ip, #4]
10001fe4:	2d01      	cmp	r5, #1
10001fe6:	d92a      	bls.n	1000203e <clock_configure_undivided+0x86>
10001fe8:	f44f 6700 	mov.w	r7, #2048	@ 0x800
10001fec:	4c25      	ldr	r4, [pc, #148]	@ (10002084 <clock_configure_undivided+0xcc>)
10001fee:	f50c 5240 	add.w	r2, ip, #12288	@ 0x3000
10001ff2:	6017      	str	r7, [r2, #0]
10001ff4:	f854 2020 	ldr.w	r2, [r4, r0, lsl #2]
10001ff8:	b9b2      	cbnz	r2, 10002028 <clock_configure_undivided+0x70>
10001ffa:	f8dc 2000 	ldr.w	r2, [ip]
10001ffe:	2d01      	cmp	r5, #1
10002000:	ea82 1246 	eor.w	r2, r2, r6, lsl #5
10002004:	f002 02e0 	and.w	r2, r2, #224	@ 0xe0
10002008:	f50c 5680 	add.w	r6, ip, #4096	@ 0x1000
1000200c:	6032      	str	r2, [r6, #0]
1000200e:	d92a      	bls.n	10002066 <clock_configure_undivided+0xae>
10002010:	f44f 6100 	mov.w	r1, #2048	@ 0x800
10002014:	f844 3020 	str.w	r3, [r4, r0, lsl #2]
10002018:	f44f 3380 	mov.w	r3, #65536	@ 0x10000
1000201c:	f50c 5200 	add.w	r2, ip, #8192	@ 0x2000
10002020:	6011      	str	r1, [r2, #0]
10002022:	f8cc 3004 	str.w	r3, [ip, #4]
10002026:	bdf0      	pop	{r4, r5, r6, r7, pc}
10002028:	6967      	ldr	r7, [r4, #20]
1000202a:	fbb7 fef2 	udiv	lr, r7, r2
1000202e:	f10e 0e01 	add.w	lr, lr, #1
10002032:	eb0e 0e4e 	add.w	lr, lr, lr, lsl #1
10002036:	f1be 0e03 	subs.w	lr, lr, #3
1000203a:	d2fc      	bcs.n	10002036 <clock_configure_undivided+0x7e>
1000203c:	e7dd      	b.n	10001ffa <clock_configure_undivided+0x42>
1000203e:	2901      	cmp	r1, #1
10002040:	d1d2      	bne.n	10001fe8 <clock_configure_undivided+0x30>
10002042:	2403      	movs	r4, #3
10002044:	f50c 5240 	add.w	r2, ip, #12288	@ 0x3000
10002048:	6014      	str	r4, [r2, #0]
1000204a:	f8dc 2008 	ldr.w	r2, [ip, #8]
1000204e:	07d2      	lsls	r2, r2, #31
10002050:	d5fb      	bpl.n	1000204a <clock_configure_undivided+0x92>
10002052:	f8dc 2000 	ldr.w	r2, [ip]
10002056:	4c0b      	ldr	r4, [pc, #44]	@ (10002084 <clock_configure_undivided+0xcc>)
10002058:	ea82 1246 	eor.w	r2, r2, r6, lsl #5
1000205c:	f002 02e0 	and.w	r2, r2, #224	@ 0xe0
10002060:	f50c 5680 	add.w	r6, ip, #4096	@ 0x1000
10002064:	6032      	str	r2, [r6, #0]
10002066:	2201      	movs	r2, #1
10002068:	f8dc 5000 	ldr.w	r5, [ip]
1000206c:	404d      	eors	r5, r1
1000206e:	f005 0503 	and.w	r5, r5, #3
10002072:	6035      	str	r5, [r6, #0]
10002074:	fa02 f101 	lsl.w	r1, r2, r1
10002078:	f8dc 2008 	ldr.w	r2, [ip, #8]
1000207c:	420a      	tst	r2, r1
1000207e:	d0fb      	beq.n	10002078 <clock_configure_undivided+0xc0>
10002080:	e7c6      	b.n	10002010 <clock_configure_undivided+0x58>
10002082:	bf00      	nop
10002084:	200007b4 	.word	0x200007b4

10002088 <clock_get_hz>:
10002088:	4b01      	ldr	r3, [pc, #4]	@ (10002090 <clock_get_hz+0x8>)
1000208a:	f853 0020 	ldr.w	r0, [r3, r0, lsl #2]
1000208e:	4770      	bx	lr
10002090:	200007b4 	.word	0x200007b4

10002094 <set_sys_clock_pll>:
10002094:	4b58      	ldr	r3, [pc, #352]	@ (100021f8 <set_sys_clock_pll+0x164>)
10002096:	e92d 43f0 	stmdb	sp!, {r4, r5, r6, r7, r8, r9, lr}
1000209a:	6c1c      	ldr	r4, [r3, #64]	@ 0x40
1000209c:	4617      	mov	r7, r2
1000209e:	f5b4 3f80 	cmp.w	r4, #65536	@ 0x10000
100020a2:	bf38      	it	cc
100020a4:	f44f 3280 	movcc.w	r2, #65536	@ 0x10000
100020a8:	b083      	sub	sp, #12
100020aa:	bf38      	it	cc
100020ac:	641a      	strcc	r2, [r3, #64]	@ 0x40
100020ae:	2203      	movs	r2, #3
100020b0:	4680      	mov	r8, r0
100020b2:	460e      	mov	r6, r1
100020b4:	4b51      	ldr	r3, [pc, #324]	@ (100021fc <set_sys_clock_pll+0x168>)
100020b6:	4d50      	ldr	r5, [pc, #320]	@ (100021f8 <set_sys_clock_pll+0x164>)
100020b8:	63da      	str	r2, [r3, #60]	@ 0x3c
100020ba:	6c6c      	ldr	r4, [r5, #68]	@ 0x44
100020bc:	07e3      	lsls	r3, r4, #31
100020be:	d5fc      	bpl.n	100020ba <set_sys_clock_pll+0x26>
100020c0:	6beb      	ldr	r3, [r5, #60]	@ 0x3c
100020c2:	4a4f      	ldr	r2, [pc, #316]	@ (10002200 <set_sys_clock_pll+0x16c>)
100020c4:	f083 0320 	eor.w	r3, r3, #32
100020c8:	f003 03e0 	and.w	r3, r3, #224	@ 0xe0
100020cc:	63d3      	str	r3, [r2, #60]	@ 0x3c
100020ce:	6beb      	ldr	r3, [r5, #60]	@ 0x3c
100020d0:	4d49      	ldr	r5, [pc, #292]	@ (100021f8 <set_sys_clock_pll+0x164>)
100020d2:	f083 0301 	eor.w	r3, r3, #1
100020d6:	f003 0303 	and.w	r3, r3, #3
100020da:	63d3      	str	r3, [r2, #60]	@ 0x3c
100020dc:	6c6c      	ldr	r4, [r5, #68]	@ 0x44
100020de:	07a4      	lsls	r4, r4, #30
100020e0:	d5fc      	bpl.n	100020dc <set_sys_clock_pll+0x48>
100020e2:	f44f 6200 	mov.w	r2, #2048	@ 0x800
100020e6:	f44f 3980 	mov.w	r9, #65536	@ 0x10000
100020ea:	4b46      	ldr	r3, [pc, #280]	@ (10002204 <set_sys_clock_pll+0x170>)
100020ec:	4c46      	ldr	r4, [pc, #280]	@ (10002208 <set_sys_clock_pll+0x174>)
100020ee:	63da      	str	r2, [r3, #60]	@ 0x3c
100020f0:	4b46      	ldr	r3, [pc, #280]	@ (1000220c <set_sys_clock_pll+0x178>)
100020f2:	4642      	mov	r2, r8
100020f4:	6163      	str	r3, [r4, #20]
100020f6:	2101      	movs	r1, #1
100020f8:	4633      	mov	r3, r6
100020fa:	f8c5 9040 	str.w	r9, [r5, #64]	@ 0x40
100020fe:	4844      	ldr	r0, [pc, #272]	@ (10002210 <set_sys_clock_pll+0x17c>)
10002100:	9700      	str	r7, [sp, #0]
10002102:	f000 f957 	bl	100023b4 <pll_init>
10002106:	f44f 6100 	mov.w	r1, #2048	@ 0x800
1000210a:	6b6b      	ldr	r3, [r5, #52]	@ 0x34
1000210c:	fb07 f606 	mul.w	r6, r7, r6
10002110:	454b      	cmp	r3, r9
10002112:	bf38      	it	cc
10002114:	f8c5 9034 	strcc.w	r9, [r5, #52]	@ 0x34
10002118:	4b38      	ldr	r3, [pc, #224]	@ (100021fc <set_sys_clock_pll+0x168>)
1000211a:	6922      	ldr	r2, [r4, #16]
1000211c:	fbb8 f6f6 	udiv	r6, r8, r6
10002120:	6319      	str	r1, [r3, #48]	@ 0x30
10002122:	b13a      	cbz	r2, 10002134 <set_sys_clock_pll+0xa0>
10002124:	6963      	ldr	r3, [r4, #20]
10002126:	fbb3 f3f2 	udiv	r3, r3, r2
1000212a:	3301      	adds	r3, #1
1000212c:	eb03 0343 	add.w	r3, r3, r3, lsl #1
10002130:	3b03      	subs	r3, #3
10002132:	d2fd      	bcs.n	10002130 <set_sys_clock_pll+0x9c>
10002134:	4930      	ldr	r1, [pc, #192]	@ (100021f8 <set_sys_clock_pll+0x164>)
10002136:	4a32      	ldr	r2, [pc, #200]	@ (10002200 <set_sys_clock_pll+0x16c>)
10002138:	6b0b      	ldr	r3, [r1, #48]	@ 0x30
1000213a:	f003 03e0 	and.w	r3, r3, #224	@ 0xe0
1000213e:	6313      	str	r3, [r2, #48]	@ 0x30
10002140:	6b0b      	ldr	r3, [r1, #48]	@ 0x30
10002142:	f083 0302 	eor.w	r3, r3, #2
10002146:	f003 0303 	and.w	r3, r3, #3
1000214a:	6313      	str	r3, [r2, #48]	@ 0x30
1000214c:	6b8b      	ldr	r3, [r1, #56]	@ 0x38
1000214e:	0758      	lsls	r0, r3, #29
10002150:	d5fc      	bpl.n	1000214c <set_sys_clock_pll+0xb8>
10002152:	f44f 6500 	mov.w	r5, #2048	@ 0x800
10002156:	f44f 3380 	mov.w	r3, #65536	@ 0x10000
1000215a:	4a2a      	ldr	r2, [pc, #168]	@ (10002204 <set_sys_clock_pll+0x170>)
1000215c:	6315      	str	r5, [r2, #48]	@ 0x30
1000215e:	4a2d      	ldr	r2, [pc, #180]	@ (10002214 <set_sys_clock_pll+0x180>)
10002160:	634b      	str	r3, [r1, #52]	@ 0x34
10002162:	6122      	str	r2, [r4, #16]
10002164:	6c0a      	ldr	r2, [r1, #64]	@ 0x40
10002166:	429a      	cmp	r2, r3
10002168:	f04f 0203 	mov.w	r2, #3
1000216c:	bf38      	it	cc
1000216e:	640b      	strcc	r3, [r1, #64]	@ 0x40
10002170:	4b22      	ldr	r3, [pc, #136]	@ (100021fc <set_sys_clock_pll+0x168>)
10002172:	4921      	ldr	r1, [pc, #132]	@ (100021f8 <set_sys_clock_pll+0x164>)
10002174:	63da      	str	r2, [r3, #60]	@ 0x3c
10002176:	6c4b      	ldr	r3, [r1, #68]	@ 0x44
10002178:	07da      	lsls	r2, r3, #31
1000217a:	d5fc      	bpl.n	10002176 <set_sys_clock_pll+0xe2>
1000217c:	6bcb      	ldr	r3, [r1, #60]	@ 0x3c
1000217e:	4a20      	ldr	r2, [pc, #128]	@ (10002200 <set_sys_clock_pll+0x16c>)
10002180:	f003 03e0 	and.w	r3, r3, #224	@ 0xe0
10002184:	63d3      	str	r3, [r2, #60]	@ 0x3c
10002186:	6bcb      	ldr	r3, [r1, #60]	@ 0x3c
10002188:	491b      	ldr	r1, [pc, #108]	@ (100021f8 <set_sys_clock_pll+0x164>)
1000218a:	f083 0301 	eor.w	r3, r3, #1
1000218e:	f003 0303 	and.w	r3, r3, #3
10002192:	63d3      	str	r3, [r2, #60]	@ 0x3c
10002194:	6c4b      	ldr	r3, [r1, #68]	@ 0x44
10002196:	079b      	lsls	r3, r3, #30
10002198:	d5fc      	bpl.n	10002194 <set_sys_clock_pll+0x100>
1000219a:	f44f 3380 	mov.w	r3, #65536	@ 0x10000
1000219e:	f44f 6500 	mov.w	r5, #2048	@ 0x800
100021a2:	4a18      	ldr	r2, [pc, #96]	@ (10002204 <set_sys_clock_pll+0x170>)
100021a4:	6166      	str	r6, [r4, #20]
100021a6:	63d5      	str	r5, [r2, #60]	@ 0x3c
100021a8:	640b      	str	r3, [r1, #64]	@ 0x40
100021aa:	6cca      	ldr	r2, [r1, #76]	@ 0x4c
100021ac:	429a      	cmp	r2, r3
100021ae:	bf38      	it	cc
100021b0:	64cb      	strcc	r3, [r1, #76]	@ 0x4c
100021b2:	f44f 6100 	mov.w	r1, #2048	@ 0x800
100021b6:	4b11      	ldr	r3, [pc, #68]	@ (100021fc <set_sys_clock_pll+0x168>)
100021b8:	69a2      	ldr	r2, [r4, #24]
100021ba:	6499      	str	r1, [r3, #72]	@ 0x48
100021bc:	b13a      	cbz	r2, 100021ce <set_sys_clock_pll+0x13a>
100021be:	6963      	ldr	r3, [r4, #20]
100021c0:	fbb3 f3f2 	udiv	r3, r3, r2
100021c4:	3301      	adds	r3, #1
100021c6:	eb03 0343 	add.w	r3, r3, r3, lsl #1
100021ca:	3b03      	subs	r3, #3
100021cc:	d2fd      	bcs.n	100021ca <set_sys_clock_pll+0x136>
100021ce:	f44f 6000 	mov.w	r0, #2048	@ 0x800
100021d2:	f44f 3180 	mov.w	r1, #65536	@ 0x10000
100021d6:	4a08      	ldr	r2, [pc, #32]	@ (100021f8 <set_sys_clock_pll+0x164>)
100021d8:	4d09      	ldr	r5, [pc, #36]	@ (10002200 <set_sys_clock_pll+0x16c>)
100021da:	6c93      	ldr	r3, [r2, #72]	@ 0x48
100021dc:	f083 0340 	eor.w	r3, r3, #64	@ 0x40
100021e0:	f003 03e0 	and.w	r3, r3, #224	@ 0xe0
100021e4:	64ab      	str	r3, [r5, #72]	@ 0x48
100021e6:	4b07      	ldr	r3, [pc, #28]	@ (10002204 <set_sys_clock_pll+0x170>)
100021e8:	4d08      	ldr	r5, [pc, #32]	@ (1000220c <set_sys_clock_pll+0x178>)
100021ea:	61a5      	str	r5, [r4, #24]
100021ec:	6498      	str	r0, [r3, #72]	@ 0x48
100021ee:	64d1      	str	r1, [r2, #76]	@ 0x4c
100021f0:	b003      	add	sp, #12
100021f2:	e8bd 83f0 	ldmia.w	sp!, {r4, r5, r6, r7, r8, r9, pc}
100021f6:	bf00      	nop
100021f8:	40010000 	.word	0x40010000
100021fc:	40013000 	.word	0x40013000
10002200:	40011000 	.word	0x40011000
10002204:	40012000 	.word	0x40012000
10002208:	200007b4 	.word	0x200007b4
1000220c:	02dc6c00 	.word	0x02dc6c00
10002210:	40050000 	.word	0x40050000
10002214:	00b71b00 	.word	0x00b71b00

10002218 <check_sys_clock_khz>:
10002218:	e92d 4ff0 	stmdb	sp!, {r4, r5, r6, r7, r8, r9, sl, fp, lr}
1000221c:	f44f 78a0 	mov.w	r8, #320	@ 0x140
10002220:	4699      	mov	r9, r3
10002222:	b085      	sub	sp, #20
10002224:	e9cd 1202 	strd	r1, r2, [sp, #8]
10002228:	4c5f      	ldr	r4, [pc, #380]	@ (100023a8 <check_sys_clock_khz+0x190>)
1000222a:	f8df a184 	ldr.w	sl, [pc, #388]	@ 100023b0 <check_sys_clock_khz+0x198>
1000222e:	4554      	cmp	r4, sl
10002230:	d90a      	bls.n	10002248 <check_sys_clock_khz+0x30>
10002232:	f108 38ff 	add.w	r8, r8, #4294967295	@ 0xffffffff
10002236:	f5a4 543b 	sub.w	r4, r4, #11968	@ 0x2ec0
1000223a:	f1b8 0f0f 	cmp.w	r8, #15
1000223e:	f1a4 0420 	sub.w	r4, r4, #32
10002242:	d1f4      	bne.n	1000222e <check_sys_clock_khz+0x16>
10002244:	2000      	movs	r0, #0
10002246:	e069      	b.n	1000231c <check_sys_clock_khz+0x104>
10002248:	2307      	movs	r3, #7
1000224a:	f504 2237 	add.w	r2, r4, #749568	@ 0xb7000
1000224e:	9401      	str	r4, [sp, #4]
10002250:	fb03 f403 	mul.w	r4, r3, r3
10002254:	f502 72d8 	add.w	r2, r2, #432	@ 0x1b0
10002258:	fbb2 fef4 	udiv	lr, r2, r4
1000225c:	4586      	cmp	lr, r0
1000225e:	f04f 0c01 	mov.w	ip, #1
10002262:	f04f 0702 	mov.w	r7, #2
10002266:	f04f 0603 	mov.w	r6, #3
1000226a:	f04f 0504 	mov.w	r5, #4
1000226e:	f04f 0105 	mov.w	r1, #5
10002272:	d03f      	beq.n	100022f4 <check_sys_clock_khz+0xdc>
10002274:	f1b3 0e01 	subs.w	lr, r3, #1
10002278:	f000 8094 	beq.w	100023a4 <check_sys_clock_khz+0x18c>
1000227c:	fb0e f403 	mul.w	r4, lr, r3
10002280:	fbb2 fbf4 	udiv	fp, r2, r4
10002284:	4558      	cmp	r0, fp
10002286:	d04c      	beq.n	10002322 <check_sys_clock_khz+0x10a>
10002288:	b319      	cbz	r1, 100022d2 <check_sys_clock_khz+0xba>
1000228a:	fb03 f401 	mul.w	r4, r3, r1
1000228e:	fbb2 fbf4 	udiv	fp, r2, r4
10002292:	4558      	cmp	r0, fp
10002294:	d04f      	beq.n	10002336 <check_sys_clock_khz+0x11e>
10002296:	b1e5      	cbz	r5, 100022d2 <check_sys_clock_khz+0xba>
10002298:	fb05 f403 	mul.w	r4, r5, r3
1000229c:	fbb2 fbf4 	udiv	fp, r2, r4
100022a0:	4558      	cmp	r0, fp
100022a2:	d053      	beq.n	1000234c <check_sys_clock_khz+0x134>
100022a4:	b1ae      	cbz	r6, 100022d2 <check_sys_clock_khz+0xba>
100022a6:	fb06 f403 	mul.w	r4, r6, r3
100022aa:	fbb2 fbf4 	udiv	fp, r2, r4
100022ae:	4558      	cmp	r0, fp
100022b0:	d057      	beq.n	10002362 <check_sys_clock_khz+0x14a>
100022b2:	b177      	cbz	r7, 100022d2 <check_sys_clock_khz+0xba>
100022b4:	fb07 f403 	mul.w	r4, r7, r3
100022b8:	fbb2 fbf4 	udiv	fp, r2, r4
100022bc:	4558      	cmp	r0, fp
100022be:	d05b      	beq.n	10002378 <check_sys_clock_khz+0x160>
100022c0:	f1bc 0f00 	cmp.w	ip, #0
100022c4:	d005      	beq.n	100022d2 <check_sys_clock_khz+0xba>
100022c6:	fb0c f403 	mul.w	r4, ip, r3
100022ca:	fbb2 fbf4 	udiv	fp, r2, r4
100022ce:	4583      	cmp	fp, r0
100022d0:	d05d      	beq.n	1000238e <check_sys_clock_khz+0x176>
100022d2:	4673      	mov	r3, lr
100022d4:	fb03 f403 	mul.w	r4, r3, r3
100022d8:	fbb2 fef4 	udiv	lr, r2, r4
100022dc:	4586      	cmp	lr, r0
100022de:	f101 31ff 	add.w	r1, r1, #4294967295	@ 0xffffffff
100022e2:	f105 35ff 	add.w	r5, r5, #4294967295	@ 0xffffffff
100022e6:	f106 36ff 	add.w	r6, r6, #4294967295	@ 0xffffffff
100022ea:	f107 37ff 	add.w	r7, r7, #4294967295	@ 0xffffffff
100022ee:	f10c 3cff 	add.w	ip, ip, #4294967295	@ 0xffffffff
100022f2:	d1bf      	bne.n	10002274 <check_sys_clock_khz+0x5c>
100022f4:	fb04 2410 	mls	r4, r4, r0, r2
100022f8:	2c00      	cmp	r4, #0
100022fa:	d1bb      	bne.n	10002274 <check_sys_clock_khz+0x5c>
100022fc:	469e      	mov	lr, r3
100022fe:	464a      	mov	r2, r9
10002300:	f8dd b008 	ldr.w	fp, [sp, #8]
10002304:	f8dd 900c 	ldr.w	r9, [sp, #12]
10002308:	2001      	movs	r0, #1
1000230a:	4928      	ldr	r1, [pc, #160]	@ (100023ac <check_sys_clock_khz+0x194>)
1000230c:	fb01 f108 	mul.w	r1, r1, r8
10002310:	f8cb 1000 	str.w	r1, [fp]
10002314:	f8c9 3000 	str.w	r3, [r9]
10002318:	f8c2 e000 	str.w	lr, [r2]
1000231c:	b005      	add	sp, #20
1000231e:	e8bd 8ff0 	ldmia.w	sp!, {r4, r5, r6, r7, r8, r9, sl, fp, pc}
10002322:	fb04 2410 	mls	r4, r4, r0, r2
10002326:	2c00      	cmp	r4, #0
10002328:	d1ae      	bne.n	10002288 <check_sys_clock_khz+0x70>
1000232a:	464a      	mov	r2, r9
1000232c:	f8dd b008 	ldr.w	fp, [sp, #8]
10002330:	f8dd 900c 	ldr.w	r9, [sp, #12]
10002334:	e7e8      	b.n	10002308 <check_sys_clock_khz+0xf0>
10002336:	fb04 2410 	mls	r4, r4, r0, r2
1000233a:	2c00      	cmp	r4, #0
1000233c:	d1ab      	bne.n	10002296 <check_sys_clock_khz+0x7e>
1000233e:	464a      	mov	r2, r9
10002340:	468e      	mov	lr, r1
10002342:	f8dd b008 	ldr.w	fp, [sp, #8]
10002346:	f8dd 900c 	ldr.w	r9, [sp, #12]
1000234a:	e7dd      	b.n	10002308 <check_sys_clock_khz+0xf0>
1000234c:	fb04 2410 	mls	r4, r4, r0, r2
10002350:	2c00      	cmp	r4, #0
10002352:	d1a7      	bne.n	100022a4 <check_sys_clock_khz+0x8c>
10002354:	464a      	mov	r2, r9
10002356:	46ae      	mov	lr, r5
10002358:	f8dd b008 	ldr.w	fp, [sp, #8]
1000235c:	f8dd 900c 	ldr.w	r9, [sp, #12]
10002360:	e7d2      	b.n	10002308 <check_sys_clock_khz+0xf0>
10002362:	fb04 2410 	mls	r4, r4, r0, r2
10002366:	2c00      	cmp	r4, #0
10002368:	d1a3      	bne.n	100022b2 <check_sys_clock_khz+0x9a>
1000236a:	464a      	mov	r2, r9
1000236c:	46b6      	mov	lr, r6
1000236e:	f8dd b008 	ldr.w	fp, [sp, #8]
10002372:	f8dd 900c 	ldr.w	r9, [sp, #12]
10002376:	e7c7      	b.n	10002308 <check_sys_clock_khz+0xf0>
10002378:	fb04 2410 	mls	r4, r4, r0, r2
1000237c:	2c00      	cmp	r4, #0
1000237e:	d19f      	bne.n	100022c0 <check_sys_clock_khz+0xa8>
10002380:	464a      	mov	r2, r9
10002382:	46be      	mov	lr, r7
10002384:	f8dd b008 	ldr.w	fp, [sp, #8]
10002388:	f8dd 900c 	ldr.w	r9, [sp, #12]
1000238c:	e7bc      	b.n	10002308 <check_sys_clock_khz+0xf0>
1000238e:	fb04 2410 	mls	r4, r4, r0, r2
10002392:	2c00      	cmp	r4, #0
10002394:	d19d      	bne.n	100022d2 <check_sys_clock_khz+0xba>
10002396:	464a      	mov	r2, r9
10002398:	46e6      	mov	lr, ip
1000239a:	f8dd b008 	ldr.w	fp, [sp, #8]
1000239e:	f8dd 900c 	ldr.w	r9, [sp, #12]
100023a2:	e7b1      	b.n	10002308 <check_sys_clock_khz+0xf0>
100023a4:	9c01      	ldr	r4, [sp, #4]
100023a6:	e744      	b.n	10002232 <check_sys_clock_khz+0x1a>
100023a8:	002f2650 	.word	0x002f2650
100023ac:	00b71b00 	.word	0x00b71b00
100023b0:	000cf850 	.word	0x000cf850

100023b4 <pll_init>:
100023b4:	b470      	push	{r4, r5, r6}
100023b6:	9d03      	ldr	r5, [sp, #12]
100023b8:	6804      	ldr	r4, [r0, #0]
100023ba:	032d      	lsls	r5, r5, #12
100023bc:	ea45 4503 	orr.w	r5, r5, r3, lsl #16
100023c0:	4b1b      	ldr	r3, [pc, #108]	@ (10002430 <pll_init+0x7c>)
100023c2:	2c00      	cmp	r4, #0
100023c4:	fbb3 f3f1 	udiv	r3, r3, r1
100023c8:	fbb2 f6f3 	udiv	r6, r2, r3
100023cc:	db1f      	blt.n	1000240e <pll_init+0x5a>
100023ce:	4a19      	ldr	r2, [pc, #100]	@ (10002434 <pll_init+0x80>)
100023d0:	4b19      	ldr	r3, [pc, #100]	@ (10002438 <pll_init+0x84>)
100023d2:	4290      	cmp	r0, r2
100023d4:	bf14      	ite	ne
100023d6:	f44f 4280 	movne.w	r2, #16384	@ 0x4000
100023da:	f44f 4200 	moveq.w	r2, #32768	@ 0x8000
100023de:	4c17      	ldr	r4, [pc, #92]	@ (1000243c <pll_init+0x88>)
100023e0:	601a      	str	r2, [r3, #0]
100023e2:	f503 5380 	add.w	r3, r3, #4096	@ 0x1000
100023e6:	601a      	str	r2, [r3, #0]
100023e8:	68a3      	ldr	r3, [r4, #8]
100023ea:	ea32 0303 	bics.w	r3, r2, r3
100023ee:	d1fb      	bne.n	100023e8 <pll_init+0x34>
100023f0:	2221      	movs	r2, #33	@ 0x21
100023f2:	f500 5340 	add.w	r3, r0, #12288	@ 0x3000
100023f6:	3304      	adds	r3, #4
100023f8:	6001      	str	r1, [r0, #0]
100023fa:	6086      	str	r6, [r0, #8]
100023fc:	601a      	str	r2, [r3, #0]
100023fe:	6802      	ldr	r2, [r0, #0]
10002400:	2a00      	cmp	r2, #0
10002402:	dafc      	bge.n	100023fe <pll_init+0x4a>
10002404:	2208      	movs	r2, #8
10002406:	60c5      	str	r5, [r0, #12]
10002408:	601a      	str	r2, [r3, #0]
1000240a:	bc70      	pop	{r4, r5, r6}
1000240c:	4770      	bx	lr
1000240e:	6803      	ldr	r3, [r0, #0]
10002410:	f003 033f 	and.w	r3, r3, #63	@ 0x3f
10002414:	428b      	cmp	r3, r1
10002416:	d1da      	bne.n	100023ce <pll_init+0x1a>
10002418:	6883      	ldr	r3, [r0, #8]
1000241a:	f3c3 030b 	ubfx	r3, r3, #0, #12
1000241e:	42b3      	cmp	r3, r6
10002420:	d1d5      	bne.n	100023ce <pll_init+0x1a>
10002422:	68c3      	ldr	r3, [r0, #12]
10002424:	f403 23ee 	and.w	r3, r3, #487424	@ 0x77000
10002428:	42ab      	cmp	r3, r5
1000242a:	d1d0      	bne.n	100023ce <pll_init+0x1a>
1000242c:	e7ed      	b.n	1000240a <pll_init+0x56>
1000242e:	bf00      	nop
10002430:	00b71b00 	.word	0x00b71b00
10002434:	40058000 	.word	0x40058000
10002438:	40022000 	.word	0x40022000
1000243c:	40020000 	.word	0x40020000

10002440 <watchdog_reboot>:
10002440:	b430      	push	{r4, r5}
10002442:	f04f 4480 	mov.w	r4, #1073741824	@ 0x40000000
10002446:	4b1c      	ldr	r3, [pc, #112]	@ (100024b8 <watchdog_reboot+0x78>)
10002448:	601c      	str	r4, [r3, #0]
1000244a:	b1e0      	cbz	r0, 10002486 <watchdog_reboot+0x46>
1000244c:	4c1b      	ldr	r4, [pc, #108]	@ (100024bc <watchdog_reboot+0x7c>)
1000244e:	f5a3 5340 	sub.w	r3, r3, #12288	@ 0x3000
10002452:	61dc      	str	r4, [r3, #28]
10002454:	4c1a      	ldr	r4, [pc, #104]	@ (100024c0 <watchdog_reboot+0x80>)
10002456:	f040 0001 	orr.w	r0, r0, #1
1000245a:	4044      	eors	r4, r0
1000245c:	621c      	str	r4, [r3, #32]
1000245e:	6259      	str	r1, [r3, #36]	@ 0x24
10002460:	6298      	str	r0, [r3, #40]	@ 0x28
10002462:	f04f 4580 	mov.w	r5, #1073741824	@ 0x40000000
10002466:	f04f 61e0 	mov.w	r1, #117440512	@ 0x7000000
1000246a:	4b13      	ldr	r3, [pc, #76]	@ (100024b8 <watchdog_reboot+0x78>)
1000246c:	4815      	ldr	r0, [pc, #84]	@ (100024c4 <watchdog_reboot+0x84>)
1000246e:	4c16      	ldr	r4, [pc, #88]	@ (100024c8 <watchdog_reboot+0x88>)
10002470:	601d      	str	r5, [r3, #0]
10002472:	6084      	str	r4, [r0, #8]
10002474:	6019      	str	r1, [r3, #0]
10002476:	b94a      	cbnz	r2, 1000248c <watchdog_reboot+0x4c>
10002478:	bc30      	pop	{r4, r5}
1000247a:	f04f 4200 	mov.w	r2, #2147483648	@ 0x80000000
1000247e:	f5a3 5380 	sub.w	r3, r3, #4096	@ 0x1000
10002482:	601a      	str	r2, [r3, #0]
10002484:	4770      	bx	lr
10002486:	4b11      	ldr	r3, [pc, #68]	@ (100024cc <watchdog_reboot+0x8c>)
10002488:	61d8      	str	r0, [r3, #28]
1000248a:	e7ea      	b.n	10002462 <watchdog_reboot+0x22>
1000248c:	f44f 737a 	mov.w	r3, #1000	@ 0x3e8
10002490:	fb03 f202 	mul.w	r2, r3, r2
10002494:	f1b2 7f80 	cmp.w	r2, #16777216	@ 0x1000000
10002498:	bf2a      	itet	cs
1000249a:	f06f 437f 	mvncs.w	r3, #4278190080	@ 0xff000000
1000249e:	4613      	movcc	r3, r2
100024a0:	461a      	movcs	r2, r3
100024a2:	f04f 4180 	mov.w	r1, #1073741824	@ 0x40000000
100024a6:	4c0a      	ldr	r4, [pc, #40]	@ (100024d0 <watchdog_reboot+0x90>)
100024a8:	4808      	ldr	r0, [pc, #32]	@ (100024cc <watchdog_reboot+0x8c>)
100024aa:	6023      	str	r3, [r4, #0]
100024ac:	4b09      	ldr	r3, [pc, #36]	@ (100024d4 <watchdog_reboot+0x94>)
100024ae:	6042      	str	r2, [r0, #4]
100024b0:	bc30      	pop	{r4, r5}
100024b2:	6019      	str	r1, [r3, #0]
100024b4:	4770      	bx	lr
100024b6:	bf00      	nop
100024b8:	400db000 	.word	0x400db000
100024bc:	b007c0d3 	.word	0xb007c0d3
100024c0:	4ff83f2d 	.word	0x4ff83f2d
100024c4:	4001a000 	.word	0x4001a000
100024c8:	01fffff3 	.word	0x01fffff3
100024cc:	400d8000 	.word	0x400d8000
100024d0:	200007e8 	.word	0x200007e8
100024d4:	400da000 	.word	0x400da000

100024d8 <tick_start>:
100024d8:	2301      	movs	r3, #1
100024da:	eb00 0040 	add.w	r0, r0, r0, lsl #1
100024de:	0080      	lsls	r0, r0, #2
100024e0:	f100 4080 	add.w	r0, r0, #1073741824	@ 0x40000000
100024e4:	f500 1084 	add.w	r0, r0, #1081344	@ 0x108000
100024e8:	6041      	str	r1, [r0, #4]
100024ea:	6003      	str	r3, [r0, #0]
100024ec:	4770      	bx	lr
100024ee:	bf00      	nop

100024f0 <rom_func_lookup>:
100024f0:	2300      	movs	r3, #0
100024f2:	8adb      	ldrh	r3, [r3, #22]
100024f4:	2200      	movs	r2, #0
100024f6:	e842 f200 	tt	r2, r2
100024fa:	0252      	lsls	r2, r2, #9
100024fc:	d401      	bmi.n	10002502 <rom_func_lookup+0x12>
100024fe:	2110      	movs	r1, #16
10002500:	4718      	bx	r3
10002502:	2104      	movs	r1, #4
10002504:	4718      	bx	r3
10002506:	bf00      	nop

10002508 <runtime_init_bootrom_locking_enable>:
10002508:	4a03      	ldr	r2, [pc, #12]	@ (10002518 <runtime_init_bootrom_locking_enable+0x10>)
1000250a:	f8d2 3828 	ldr.w	r3, [r2, #2088]	@ 0x828
1000250e:	2b00      	cmp	r3, #0
10002510:	d0fb      	beq.n	1000250a <runtime_init_bootrom_locking_enable+0x2>
10002512:	f3bf 8f5f 	dmb	sy
10002516:	4770      	bx	lr
10002518:	400e0000 	.word	0x400e0000

1000251c <runtime_init_boot_locks_reset>:
1000251c:	2100      	movs	r1, #0
1000251e:	4b04      	ldr	r3, [pc, #16]	@ (10002530 <runtime_init_boot_locks_reset+0x14>)
10002520:	4a04      	ldr	r2, [pc, #16]	@ (10002534 <runtime_init_boot_locks_reset+0x18>)
10002522:	f3bf 8f5f 	dmb	sy
10002526:	f843 1b04 	str.w	r1, [r3], #4
1000252a:	4293      	cmp	r3, r2
1000252c:	d1f9      	bne.n	10002522 <runtime_init_boot_locks_reset+0x6>
1000252e:	4770      	bx	lr
10002530:	400e080c 	.word	0x400e080c
10002534:	400e082c 	.word	0x400e082c

10002538 <xosc_init>:
10002538:	b410      	push	{r4}
1000253a:	f44f 708d 	mov.w	r0, #282	@ 0x11a
1000253e:	f44f 642a 	mov.w	r4, #2720	@ 0xaa0
10002542:	4a06      	ldr	r2, [pc, #24]	@ (1000255c <xosc_init+0x24>)
10002544:	4b06      	ldr	r3, [pc, #24]	@ (10002560 <xosc_init+0x28>)
10002546:	4907      	ldr	r1, [pc, #28]	@ (10002564 <xosc_init+0x2c>)
10002548:	6014      	str	r4, [r2, #0]
1000254a:	60d0      	str	r0, [r2, #12]
1000254c:	6019      	str	r1, [r3, #0]
1000254e:	6853      	ldr	r3, [r2, #4]
10002550:	2b00      	cmp	r3, #0
10002552:	dafc      	bge.n	1000254e <xosc_init+0x16>
10002554:	f85d 4b04 	ldr.w	r4, [sp], #4
10002558:	4770      	bx	lr
1000255a:	bf00      	nop
1000255c:	40048000 	.word	0x40048000
10002560:	4004a000 	.word	0x4004a000
10002564:	00fab000 	.word	0x00fab000

10002568 <first_per_core_initializer>:
10002568:	4770      	bx	lr
1000256a:	bf00      	nop

1000256c <hard_assertion_failure>:
1000256c:	b508      	push	{r3, lr}
1000256e:	4801      	ldr	r0, [pc, #4]	@ (10002574 <hard_assertion_failure+0x8>)
10002570:	f7fe ffc4 	bl	100014fc <panic>
10002574:	10002fe0 	.word	0x10002fe0

10002578 <runtime_run_initializers>:
10002578:	b538      	push	{r3, r4, r5, lr}
1000257a:	4c05      	ldr	r4, [pc, #20]	@ (10002590 <runtime_run_initializers+0x18>)
1000257c:	4d05      	ldr	r5, [pc, #20]	@ (10002594 <runtime_run_initializers+0x1c>)
1000257e:	42ac      	cmp	r4, r5
10002580:	d204      	bcs.n	1000258c <runtime_run_initializers+0x14>
10002582:	f854 3b04 	ldr.w	r3, [r4], #4
10002586:	4798      	blx	r3
10002588:	42ac      	cmp	r4, r5
1000258a:	d3fa      	bcc.n	10002582 <runtime_run_initializers+0xa>
1000258c:	bd38      	pop	{r3, r4, r5, pc}
1000258e:	bf00      	nop
10002590:	10002f00 	.word	0x10002f00
10002594:	10002f40 	.word	0x10002f40

10002598 <runtime_init_early_resets>:
10002598:	b410      	push	{r4}
1000259a:	4807      	ldr	r0, [pc, #28]	@ (100025b8 <runtime_init_early_resets+0x20>)
1000259c:	4c07      	ldr	r4, [pc, #28]	@ (100025bc <runtime_init_early_resets+0x24>)
1000259e:	4b08      	ldr	r3, [pc, #32]	@ (100025c0 <runtime_init_early_resets+0x28>)
100025a0:	4a08      	ldr	r2, [pc, #32]	@ (100025c4 <runtime_init_early_resets+0x2c>)
100025a2:	4909      	ldr	r1, [pc, #36]	@ (100025c8 <runtime_init_early_resets+0x30>)
100025a4:	6004      	str	r4, [r0, #0]
100025a6:	601a      	str	r2, [r3, #0]
100025a8:	688b      	ldr	r3, [r1, #8]
100025aa:	ea32 0303 	bics.w	r3, r2, r3
100025ae:	d1fb      	bne.n	100025a8 <runtime_init_early_resets+0x10>
100025b0:	f85d 4b04 	ldr.w	r4, [sp], #4
100025b4:	4770      	bx	lr
100025b6:	bf00      	nop
100025b8:	40022000 	.word	0x40022000
100025bc:	efef3b7f 	.word	0xefef3b7f
100025c0:	40023000 	.word	0x40023000
100025c4:	03f3fff6 	.word	0x03f3fff6
100025c8:	40020000 	.word	0x40020000

100025cc <runtime_init_usb_power_down>:
100025cc:	4b04      	ldr	r3, [pc, #16]	@ (100025e0 <runtime_init_usb_power_down+0x14>)
100025ce:	6cdb      	ldr	r3, [r3, #76]	@ 0x4c
100025d0:	f5b3 4f00 	cmp.w	r3, #32768	@ 0x8000
100025d4:	d103      	bne.n	100025de <runtime_init_usb_power_down+0x12>
100025d6:	f44f 2280 	mov.w	r2, #262144	@ 0x40000
100025da:	4b02      	ldr	r3, [pc, #8]	@ (100025e4 <runtime_init_usb_power_down+0x18>)
100025dc:	64da      	str	r2, [r3, #76]	@ 0x4c
100025de:	4770      	bx	lr
100025e0:	50110000 	.word	0x50110000
100025e4:	50112000 	.word	0x50112000

100025e8 <runtime_init_per_core_enable_coprocessors>:
100025e8:	f04f 22e0 	mov.w	r2, #3758153728	@ 0xe000e000
100025ec:	4b04      	ldr	r3, [pc, #16]	@ (10002600 <runtime_init_per_core_enable_coprocessors+0x18>)
100025ee:	f8d2 1d88 	ldr.w	r1, [r2, #3464]	@ 0xd88
100025f2:	430b      	orrs	r3, r1
100025f4:	f8c2 3d88 	str.w	r3, [r2, #3464]	@ 0xd88
100025f8:	ee10 0430 	dcp_rcmp r0
100025fc:	4770      	bx	lr
100025fe:	bf00      	nop
10002600:	00300303 	.word	0x00300303

10002604 <runtime_init_post_clock_resets>:
10002604:	f06f 4160 	mvn.w	r1, #3758096384	@ 0xe0000000
10002608:	4b04      	ldr	r3, [pc, #16]	@ (1000261c <runtime_init_post_clock_resets+0x18>)
1000260a:	4a05      	ldr	r2, [pc, #20]	@ (10002620 <runtime_init_post_clock_resets+0x1c>)
1000260c:	6019      	str	r1, [r3, #0]
1000260e:	6893      	ldr	r3, [r2, #8]
10002610:	43db      	mvns	r3, r3
10002612:	f033 4360 	bics.w	r3, r3, #3758096384	@ 0xe0000000
10002616:	d1fa      	bne.n	1000260e <runtime_init_post_clock_resets+0xa>
10002618:	4770      	bx	lr
1000261a:	bf00      	nop
1000261c:	40023000 	.word	0x40023000
10002620:	40020000 	.word	0x40020000

10002624 <runtime_init_bootrom_reset>:
10002624:	b510      	push	{r4, lr}
10002626:	f245 2053 	movw	r0, #21075	@ 0x5253
1000262a:	f7ff ff61 	bl	100024f0 <rom_func_lookup>
1000262e:	e8bd 4010 	ldmia.w	sp!, {r4, lr}
10002632:	4603      	mov	r3, r0
10002634:	2004      	movs	r0, #4
10002636:	4718      	bx	r3

10002638 <runtime_init_per_core_bootrom_reset>:
10002638:	b510      	push	{r4, lr}
1000263a:	f245 2053 	movw	r0, #21075	@ 0x5253
1000263e:	f7ff ff57 	bl	100024f0 <rom_func_lookup>
10002642:	e8bd 4010 	ldmia.w	sp!, {r4, lr}
10002646:	4603      	mov	r3, r0
10002648:	2001      	movs	r0, #1
1000264a:	4718      	bx	r3

1000264c <runtime_init_spin_locks_reset>:
1000264c:	f7fe bfca 	b.w	100015e4 <spin_locks_reset>

10002650 <runtime_init_install_ram_vector_table>:
10002650:	4914      	ldr	r1, [pc, #80]	@ (100026a4 <runtime_init_install_ram_vector_table+0x54>)
10002652:	4b15      	ldr	r3, [pc, #84]	@ (100026a8 <runtime_init_install_ram_vector_table+0x58>)
10002654:	b570      	push	{r4, r5, r6, lr}
10002656:	1a5c      	subs	r4, r3, r1
10002658:	10a6      	asrs	r6, r4, #2
1000265a:	2e44      	cmp	r6, #68	@ 0x44
1000265c:	4632      	mov	r2, r6
1000265e:	bf28      	it	cs
10002660:	2244      	movcs	r2, #68	@ 0x44
10002662:	4d12      	ldr	r5, [pc, #72]	@ (100026ac <runtime_init_install_ram_vector_table+0x5c>)
10002664:	0092      	lsls	r2, r2, #2
10002666:	4628      	mov	r0, r5
10002668:	f000 fbe2 	bl	10002e30 <memcpy>
1000266c:	f5b4 7f86 	cmp.w	r4, #268	@ 0x10c
10002670:	d813      	bhi.n	1000269a <runtime_init_install_ram_vector_table+0x4a>
10002672:	4a0f      	ldr	r2, [pc, #60]	@ (100026b0 <runtime_init_install_ram_vector_table+0x60>)
10002674:	f1c6 0044 	rsb	r0, r6, #68	@ 0x44
10002678:	d012      	beq.n	100026a0 <runtime_init_install_ram_vector_table+0x50>
1000267a:	192b      	adds	r3, r5, r4
1000267c:	0841      	lsrs	r1, r0, #1
1000267e:	eb03 01c1 	add.w	r1, r3, r1, lsl #3
10002682:	e9c3 2200 	strd	r2, r2, [r3]
10002686:	3308      	adds	r3, #8
10002688:	428b      	cmp	r3, r1
1000268a:	d1fa      	bne.n	10002682 <runtime_init_install_ram_vector_table+0x32>
1000268c:	07c3      	lsls	r3, r0, #31
1000268e:	d504      	bpl.n	1000269a <runtime_init_install_ram_vector_table+0x4a>
10002690:	f020 0001 	bic.w	r0, r0, #1
10002694:	4430      	add	r0, r6
10002696:	f845 2020 	str.w	r2, [r5, r0, lsl #2]
1000269a:	4b06      	ldr	r3, [pc, #24]	@ (100026b4 <runtime_init_install_ram_vector_table+0x64>)
1000269c:	609d      	str	r5, [r3, #8]
1000269e:	bd70      	pop	{r4, r5, r6, pc}
100026a0:	2043      	movs	r0, #67	@ 0x43
100026a2:	e7f8      	b.n	10002696 <runtime_init_install_ram_vector_table+0x46>
100026a4:	10000000 	.word	0x10000000
100026a8:	10000110 	.word	0x10000110
100026ac:	20000000 	.word	0x20000000
100026b0:	10000111 	.word	0x10000111
100026b4:	e000ed00 	.word	0xe000ed00

100026b8 <runtime_init_clocks>:
100026b8:	2300      	movs	r3, #0
100026ba:	b570      	push	{r4, r5, r6, lr}
100026bc:	4c2b      	ldr	r4, [pc, #172]	@ (1000276c <runtime_init_clocks+0xb4>)
100026be:	b082      	sub	sp, #8
100026c0:	f8c4 3084 	str.w	r3, [r4, #132]	@ 0x84
100026c4:	f7ff ff38 	bl	10002538 <xosc_init>
100026c8:	2201      	movs	r2, #1
100026ca:	4b29      	ldr	r3, [pc, #164]	@ (10002770 <runtime_init_clocks+0xb8>)
100026cc:	63da      	str	r2, [r3, #60]	@ 0x3c
100026ce:	6c63      	ldr	r3, [r4, #68]	@ 0x44
100026d0:	2b01      	cmp	r3, #1
100026d2:	d1fc      	bne.n	100026ce <runtime_init_clocks+0x16>
100026d4:	2103      	movs	r1, #3
100026d6:	4a26      	ldr	r2, [pc, #152]	@ (10002770 <runtime_init_clocks+0xb8>)
100026d8:	4b24      	ldr	r3, [pc, #144]	@ (1000276c <runtime_init_clocks+0xb4>)
100026da:	6311      	str	r1, [r2, #48]	@ 0x30
100026dc:	6b9c      	ldr	r4, [r3, #56]	@ 0x38
100026de:	2c01      	cmp	r4, #1
100026e0:	d1fc      	bne.n	100026dc <runtime_init_clocks+0x24>
100026e2:	2602      	movs	r6, #2
100026e4:	2505      	movs	r5, #5
100026e6:	4621      	mov	r1, r4
100026e8:	2305      	movs	r3, #5
100026ea:	4a22      	ldr	r2, [pc, #136]	@ (10002774 <runtime_init_clocks+0xbc>)
100026ec:	4822      	ldr	r0, [pc, #136]	@ (10002778 <runtime_init_clocks+0xc0>)
100026ee:	9600      	str	r6, [sp, #0]
100026f0:	f7ff fe60 	bl	100023b4 <pll_init>
100026f4:	4621      	mov	r1, r4
100026f6:	462b      	mov	r3, r5
100026f8:	4a20      	ldr	r2, [pc, #128]	@ (1000277c <runtime_init_clocks+0xc4>)
100026fa:	4821      	ldr	r0, [pc, #132]	@ (10002780 <runtime_init_clocks+0xc8>)
100026fc:	9500      	str	r5, [sp, #0]
100026fe:	f7ff fe59 	bl	100023b4 <pll_init>
10002702:	2200      	movs	r2, #0
10002704:	2004      	movs	r0, #4
10002706:	4631      	mov	r1, r6
10002708:	4b1e      	ldr	r3, [pc, #120]	@ (10002784 <runtime_init_clocks+0xcc>)
1000270a:	f7ff fc55 	bl	10001fb8 <clock_configure_undivided>
1000270e:	4621      	mov	r1, r4
10002710:	4628      	mov	r0, r5
10002712:	2200      	movs	r2, #0
10002714:	4b1c      	ldr	r3, [pc, #112]	@ (10002788 <runtime_init_clocks+0xd0>)
10002716:	f7ff fc4f 	bl	10001fb8 <clock_configure_undivided>
1000271a:	2200      	movs	r2, #0
1000271c:	2008      	movs	r0, #8
1000271e:	4611      	mov	r1, r2
10002720:	4b1a      	ldr	r3, [pc, #104]	@ (1000278c <runtime_init_clocks+0xd4>)
10002722:	f7ff fc49 	bl	10001fb8 <clock_configure_undivided>
10002726:	2200      	movs	r2, #0
10002728:	2009      	movs	r0, #9
1000272a:	4611      	mov	r1, r2
1000272c:	4b17      	ldr	r3, [pc, #92]	@ (1000278c <runtime_init_clocks+0xd4>)
1000272e:	f7ff fc43 	bl	10001fb8 <clock_configure_undivided>
10002732:	2200      	movs	r2, #0
10002734:	2006      	movs	r0, #6
10002736:	4611      	mov	r1, r2
10002738:	4b13      	ldr	r3, [pc, #76]	@ (10002788 <runtime_init_clocks+0xd0>)
1000273a:	f7ff fc3d 	bl	10001fb8 <clock_configure_undivided>
1000273e:	2200      	movs	r2, #0
10002740:	4b11      	ldr	r3, [pc, #68]	@ (10002788 <runtime_init_clocks+0xd0>)
10002742:	2007      	movs	r0, #7
10002744:	4611      	mov	r1, r2
10002746:	f7ff fc37 	bl	10001fb8 <clock_configure_undivided>
1000274a:	2004      	movs	r0, #4
1000274c:	f7ff fc9c 	bl	10002088 <clock_get_hz>
10002750:	2400      	movs	r4, #0
10002752:	4b0f      	ldr	r3, [pc, #60]	@ (10002790 <runtime_init_clocks+0xd8>)
10002754:	fba3 3500 	umull	r3, r5, r3, r0
10002758:	0cad      	lsrs	r5, r5, #18
1000275a:	b2e0      	uxtb	r0, r4
1000275c:	4629      	mov	r1, r5
1000275e:	3401      	adds	r4, #1
10002760:	f7ff feba 	bl	100024d8 <tick_start>
10002764:	2c06      	cmp	r4, #6
10002766:	d1f8      	bne.n	1000275a <runtime_init_clocks+0xa2>
10002768:	b002      	add	sp, #8
1000276a:	bd70      	pop	{r4, r5, r6, pc}
1000276c:	40010000 	.word	0x40010000
10002770:	40013000 	.word	0x40013000
10002774:	59682f00 	.word	0x59682f00
10002778:	40050000 	.word	0x40050000
1000277c:	47868c00 	.word	0x47868c00
10002780:	40058000 	.word	0x40058000
10002784:	00b71b00 	.word	0x00b71b00
10002788:	08f0d180 	.word	0x08f0d180
1000278c:	02dc6c00 	.word	0x02dc6c00
10002790:	431bde83 	.word	0x431bde83

10002794 <_out_char>:
10002794:	b900      	cbnz	r0, 10002798 <_out_char+0x4>
10002796:	4770      	bx	lr
10002798:	f000 b902 	b.w	100029a0 <__wrap_putchar>

1000279c <weak_raw_vprintf>:
1000279c:	b510      	push	{r4, lr}
1000279e:	4b09      	ldr	r3, [pc, #36]	@ (100027c4 <weak_raw_vprintf+0x28>)
100027a0:	b084      	sub	sp, #16
100027a2:	681c      	ldr	r4, [r3, #0]
100027a4:	b14c      	cbz	r4, 100027ba <weak_raw_vprintf+0x1e>
100027a6:	4603      	mov	r3, r0
100027a8:	9100      	str	r1, [sp, #0]
100027aa:	f04f 32ff 	mov.w	r2, #4294967295	@ 0xffffffff
100027ae:	a903      	add	r1, sp, #12
100027b0:	4805      	ldr	r0, [pc, #20]	@ (100027c8 <weak_raw_vprintf+0x2c>)
100027b2:	47a0      	blx	r4
100027b4:	2001      	movs	r0, #1
100027b6:	b004      	add	sp, #16
100027b8:	bd10      	pop	{r4, pc}
100027ba:	f000 f933 	bl	10002a24 <__wrap_puts>
100027be:	4620      	mov	r0, r4
100027c0:	b004      	add	sp, #16
100027c2:	bd10      	pop	{r4, pc}
100027c4:	200007e4 	.word	0x200007e4
100027c8:	10002795 	.word	0x10002795

100027cc <_exit>:
100027cc:	be00      	bkpt	0x0000
100027ce:	e7fd      	b.n	100027cc <_exit>

100027d0 <exit>:
100027d0:	b508      	push	{r3, lr}
100027d2:	f7ff fffb 	bl	100027cc <_exit>
100027d6:	bf00      	nop

100027d8 <runtime_init>:
100027d8:	b538      	push	{r3, r4, r5, lr}
100027da:	4c06      	ldr	r4, [pc, #24]	@ (100027f4 <runtime_init+0x1c>)
100027dc:	4d06      	ldr	r5, [pc, #24]	@ (100027f8 <runtime_init+0x20>)
100027de:	f7ff fecb 	bl	10002578 <runtime_run_initializers>
100027e2:	42ac      	cmp	r4, r5
100027e4:	d204      	bcs.n	100027f0 <runtime_init+0x18>
100027e6:	f854 3b04 	ldr.w	r3, [r4], #4
100027ea:	4798      	blx	r3
100027ec:	42ac      	cmp	r4, r5
100027ee:	d3fa      	bcc.n	100027e6 <runtime_init+0xe>
100027f0:	bd38      	pop	{r3, r4, r5, pc}
100027f2:	bf00      	nop
100027f4:	10002f40 	.word	0x10002f40
100027f8:	10002f44 	.word	0x10002f44

100027fc <stdio_out_chars_no_crlf>:
100027fc:	6803      	ldr	r3, [r0, #0]
100027fe:	4608      	mov	r0, r1
10002800:	4611      	mov	r1, r2
10002802:	4718      	bx	r3

10002804 <stdio_out_chars_crlf>:
10002804:	e92d 41f0 	stmdb	sp!, {r4, r5, r6, r7, r8, lr}
10002808:	4615      	mov	r5, r2
1000280a:	7d42      	ldrb	r2, [r0, #21]
1000280c:	4607      	mov	r7, r0
1000280e:	4688      	mov	r8, r1
10002810:	2a00      	cmp	r2, #0
10002812:	d046      	beq.n	100028a2 <stdio_out_chars_crlf+0x9e>
10002814:	2d00      	cmp	r5, #0
10002816:	dd1d      	ble.n	10002854 <stdio_out_chars_crlf+0x50>
10002818:	780b      	ldrb	r3, [r1, #0]
1000281a:	2b0a      	cmp	r3, #10
1000281c:	d023      	beq.n	10002866 <stdio_out_chars_crlf+0x62>
1000281e:	2d01      	cmp	r5, #1
10002820:	f04f 0c00 	mov.w	ip, #0
10002824:	d018      	beq.n	10002858 <stdio_out_chars_crlf+0x54>
10002826:	4646      	mov	r6, r8
10002828:	2401      	movs	r4, #1
1000282a:	f816 2f01 	ldrb.w	r2, [r6, #1]!
1000282e:	4621      	mov	r1, r4
10002830:	2a0a      	cmp	r2, #10
10002832:	f104 0401 	add.w	r4, r4, #1
10002836:	d022      	beq.n	1000287e <stdio_out_chars_crlf+0x7a>
10002838:	42a5      	cmp	r5, r4
1000283a:	d1f6      	bne.n	1000282a <stdio_out_chars_crlf+0x26>
1000283c:	4565      	cmp	r5, ip
1000283e:	dc0b      	bgt.n	10002858 <stdio_out_chars_crlf+0x54>
10002840:	eb08 0305 	add.w	r3, r8, r5
10002844:	f813 3c01 	ldrb.w	r3, [r3, #-1]
10002848:	f1a3 030d 	sub.w	r3, r3, #13
1000284c:	fab3 f383 	clz	r3, r3
10002850:	095b      	lsrs	r3, r3, #5
10002852:	753b      	strb	r3, [r7, #20]
10002854:	e8bd 81f0 	ldmia.w	sp!, {r4, r5, r6, r7, r8, pc}
10002858:	683b      	ldr	r3, [r7, #0]
1000285a:	eba5 010c 	sub.w	r1, r5, ip
1000285e:	eb08 000c 	add.w	r0, r8, ip
10002862:	4798      	blx	r3
10002864:	e7ec      	b.n	10002840 <stdio_out_chars_crlf+0x3c>
10002866:	7d03      	ldrb	r3, [r0, #20]
10002868:	2b00      	cmp	r3, #0
1000286a:	d1d8      	bne.n	1000281e <stdio_out_chars_crlf+0x1a>
1000286c:	6803      	ldr	r3, [r0, #0]
1000286e:	2102      	movs	r1, #2
10002870:	480f      	ldr	r0, [pc, #60]	@ (100028b0 <stdio_out_chars_crlf+0xac>)
10002872:	4798      	blx	r3
10002874:	2d01      	cmp	r5, #1
10002876:	d0e3      	beq.n	10002840 <stdio_out_chars_crlf+0x3c>
10002878:	f04f 0c01 	mov.w	ip, #1
1000287c:	e7d3      	b.n	10002826 <stdio_out_chars_crlf+0x22>
1000287e:	f816 3c01 	ldrb.w	r3, [r6, #-1]
10002882:	2b0d      	cmp	r3, #13
10002884:	d0d8      	beq.n	10002838 <stdio_out_chars_crlf+0x34>
10002886:	458c      	cmp	ip, r1
10002888:	eb08 000c 	add.w	r0, r8, ip
1000288c:	eba1 010c 	sub.w	r1, r1, ip
10002890:	da01      	bge.n	10002896 <stdio_out_chars_crlf+0x92>
10002892:	683b      	ldr	r3, [r7, #0]
10002894:	4798      	blx	r3
10002896:	2102      	movs	r1, #2
10002898:	4805      	ldr	r0, [pc, #20]	@ (100028b0 <stdio_out_chars_crlf+0xac>)
1000289a:	683b      	ldr	r3, [r7, #0]
1000289c:	4798      	blx	r3
1000289e:	46a4      	mov	ip, r4
100028a0:	e7ca      	b.n	10002838 <stdio_out_chars_crlf+0x34>
100028a2:	4629      	mov	r1, r5
100028a4:	4640      	mov	r0, r8
100028a6:	683b      	ldr	r3, [r7, #0]
100028a8:	e8bd 41f0 	ldmia.w	sp!, {r4, r5, r6, r7, r8, lr}
100028ac:	4718      	bx	r3
100028ae:	bf00      	nop
100028b0:	100030c0 	.word	0x100030c0

100028b4 <stdio_put_string>:
100028b4:	e92d 47f0 	stmdb	sp!, {r4, r5, r6, r7, r8, r9, sl, lr}
100028b8:	b082      	sub	sp, #8
100028ba:	460d      	mov	r5, r1
100028bc:	4691      	mov	r9, r2
100028be:	461c      	mov	r4, r3
100028c0:	4606      	mov	r6, r0
100028c2:	f7ff fb5d 	bl	10001f80 <time_us_64>
100028c6:	f04f 3cff 	mov.w	ip, #4294967295	@ 0xffffffff
100028ca:	f06f 4700 	mvn.w	r7, #2147483648	@ 0x80000000
100028ce:	4a2e      	ldr	r2, [pc, #184]	@ (10002988 <stdio_put_string+0xd4>)
100028d0:	1882      	adds	r2, r0, r2
100028d2:	f141 0300 	adc.w	r3, r1, #0
100028d6:	4594      	cmp	ip, r2
100028d8:	eb77 0103 	sbcs.w	r1, r7, r3
100028dc:	bf3c      	itt	cc
100028de:	4662      	movcc	r2, ip
100028e0:	463b      	movcc	r3, r7
100028e2:	482a      	ldr	r0, [pc, #168]	@ (1000298c <stdio_put_string+0xd8>)
100028e4:	f000 fb08 	bl	10002ef8 <__mutex_try_enter_block_until_veneer>
100028e8:	1c6b      	adds	r3, r5, #1
100028ea:	4680      	mov	r8, r0
100028ec:	d040      	beq.n	10002970 <stdio_put_string+0xbc>
100028ee:	b30c      	cbz	r4, 10002934 <stdio_put_string+0x80>
100028f0:	4f27      	ldr	r7, [pc, #156]	@ (10002990 <stdio_put_string+0xdc>)
100028f2:	4b28      	ldr	r3, [pc, #160]	@ (10002994 <stdio_put_string+0xe0>)
100028f4:	681c      	ldr	r4, [r3, #0]
100028f6:	b1b4      	cbz	r4, 10002926 <stdio_put_string+0x72>
100028f8:	f1b9 0f00 	cmp.w	r9, #0
100028fc:	d11c      	bne.n	10002938 <stdio_put_string+0x84>
100028fe:	f8df 909c 	ldr.w	r9, [pc, #156]	@ 1000299c <stdio_put_string+0xe8>
10002902:	e001      	b.n	10002908 <stdio_put_string+0x54>
10002904:	6924      	ldr	r4, [r4, #16]
10002906:	b174      	cbz	r4, 10002926 <stdio_put_string+0x72>
10002908:	6823      	ldr	r3, [r4, #0]
1000290a:	2b00      	cmp	r3, #0
1000290c:	d0fa      	beq.n	10002904 <stdio_put_string+0x50>
1000290e:	f8d9 3000 	ldr.w	r3, [r9]
10002912:	b10b      	cbz	r3, 10002918 <stdio_put_string+0x64>
10002914:	429c      	cmp	r4, r3
10002916:	d1f5      	bne.n	10002904 <stdio_put_string+0x50>
10002918:	4620      	mov	r0, r4
1000291a:	462a      	mov	r2, r5
1000291c:	4631      	mov	r1, r6
1000291e:	47b8      	blx	r7
10002920:	6924      	ldr	r4, [r4, #16]
10002922:	2c00      	cmp	r4, #0
10002924:	d1f0      	bne.n	10002908 <stdio_put_string+0x54>
10002926:	f1b8 0f00 	cmp.w	r8, #0
1000292a:	d126      	bne.n	1000297a <stdio_put_string+0xc6>
1000292c:	4628      	mov	r0, r5
1000292e:	b002      	add	sp, #8
10002930:	e8bd 87f0 	ldmia.w	sp!, {r4, r5, r6, r7, r8, r9, sl, pc}
10002934:	4f18      	ldr	r7, [pc, #96]	@ (10002998 <stdio_put_string+0xe4>)
10002936:	e7dc      	b.n	100028f2 <stdio_put_string+0x3e>
10002938:	f04f 0a0a 	mov.w	sl, #10
1000293c:	f8df 905c 	ldr.w	r9, [pc, #92]	@ 1000299c <stdio_put_string+0xe8>
10002940:	e002      	b.n	10002948 <stdio_put_string+0x94>
10002942:	6924      	ldr	r4, [r4, #16]
10002944:	2c00      	cmp	r4, #0
10002946:	d0ee      	beq.n	10002926 <stdio_put_string+0x72>
10002948:	6823      	ldr	r3, [r4, #0]
1000294a:	2b00      	cmp	r3, #0
1000294c:	d0f9      	beq.n	10002942 <stdio_put_string+0x8e>
1000294e:	f8d9 3000 	ldr.w	r3, [r9]
10002952:	b10b      	cbz	r3, 10002958 <stdio_put_string+0xa4>
10002954:	42a3      	cmp	r3, r4
10002956:	d1f4      	bne.n	10002942 <stdio_put_string+0x8e>
10002958:	462a      	mov	r2, r5
1000295a:	4631      	mov	r1, r6
1000295c:	4620      	mov	r0, r4
1000295e:	47b8      	blx	r7
10002960:	2201      	movs	r2, #1
10002962:	4620      	mov	r0, r4
10002964:	f10d 0107 	add.w	r1, sp, #7
10002968:	f88d a007 	strb.w	sl, [sp, #7]
1000296c:	47b8      	blx	r7
1000296e:	e7e8      	b.n	10002942 <stdio_put_string+0x8e>
10002970:	4630      	mov	r0, r6
10002972:	f000 fa2f 	bl	10002dd4 <strlen>
10002976:	4605      	mov	r5, r0
10002978:	e7b9      	b.n	100028ee <stdio_put_string+0x3a>
1000297a:	4804      	ldr	r0, [pc, #16]	@ (1000298c <stdio_put_string+0xd8>)
1000297c:	f000 fab4 	bl	10002ee8 <__mutex_exit_veneer>
10002980:	4628      	mov	r0, r5
10002982:	b002      	add	sp, #8
10002984:	e8bd 87f0 	ldmia.w	sp!, {r4, r5, r6, r7, r8, r9, sl, pc}
10002988:	000f4240 	.word	0x000f4240
1000298c:	200004dc 	.word	0x200004dc
10002990:	10002805 	.word	0x10002805
10002994:	200007dc 	.word	0x200007dc
10002998:	100027fd 	.word	0x100027fd
1000299c:	200007e0 	.word	0x200007e0

100029a0 <__wrap_putchar>:
100029a0:	b5f0      	push	{r4, r5, r6, r7, lr}
100029a2:	b083      	sub	sp, #12
100029a4:	4606      	mov	r6, r0
100029a6:	f88d 0007 	strb.w	r0, [sp, #7]
100029aa:	f7ff fae9 	bl	10001f80 <time_us_64>
100029ae:	f04f 35ff 	mov.w	r5, #4294967295	@ 0xffffffff
100029b2:	f06f 4400 	mvn.w	r4, #2147483648	@ 0x80000000
100029b6:	4a17      	ldr	r2, [pc, #92]	@ (10002a14 <__wrap_putchar+0x74>)
100029b8:	1882      	adds	r2, r0, r2
100029ba:	f141 0300 	adc.w	r3, r1, #0
100029be:	4295      	cmp	r5, r2
100029c0:	eb74 0103 	sbcs.w	r1, r4, r3
100029c4:	bf3c      	itt	cc
100029c6:	4623      	movcc	r3, r4
100029c8:	462a      	movcc	r2, r5
100029ca:	4813      	ldr	r0, [pc, #76]	@ (10002a18 <__wrap_putchar+0x78>)
100029cc:	f000 fa94 	bl	10002ef8 <__mutex_try_enter_block_until_veneer>
100029d0:	4b12      	ldr	r3, [pc, #72]	@ (10002a1c <__wrap_putchar+0x7c>)
100029d2:	4607      	mov	r7, r0
100029d4:	681c      	ldr	r4, [r3, #0]
100029d6:	b19c      	cbz	r4, 10002a00 <__wrap_putchar+0x60>
100029d8:	4d11      	ldr	r5, [pc, #68]	@ (10002a20 <__wrap_putchar+0x80>)
100029da:	e001      	b.n	100029e0 <__wrap_putchar+0x40>
100029dc:	6924      	ldr	r4, [r4, #16]
100029de:	b17c      	cbz	r4, 10002a00 <__wrap_putchar+0x60>
100029e0:	6823      	ldr	r3, [r4, #0]
100029e2:	2b00      	cmp	r3, #0
100029e4:	d0fa      	beq.n	100029dc <__wrap_putchar+0x3c>
100029e6:	682b      	ldr	r3, [r5, #0]
100029e8:	b10b      	cbz	r3, 100029ee <__wrap_putchar+0x4e>
100029ea:	429c      	cmp	r4, r3
100029ec:	d1f6      	bne.n	100029dc <__wrap_putchar+0x3c>
100029ee:	4620      	mov	r0, r4
100029f0:	2201      	movs	r2, #1
100029f2:	f10d 0107 	add.w	r1, sp, #7
100029f6:	f7ff ff05 	bl	10002804 <stdio_out_chars_crlf>
100029fa:	6924      	ldr	r4, [r4, #16]
100029fc:	2c00      	cmp	r4, #0
100029fe:	d1ef      	bne.n	100029e0 <__wrap_putchar+0x40>
10002a00:	b917      	cbnz	r7, 10002a08 <__wrap_putchar+0x68>
10002a02:	4630      	mov	r0, r6
10002a04:	b003      	add	sp, #12
10002a06:	bdf0      	pop	{r4, r5, r6, r7, pc}
10002a08:	4803      	ldr	r0, [pc, #12]	@ (10002a18 <__wrap_putchar+0x78>)
10002a0a:	f000 fa6d 	bl	10002ee8 <__mutex_exit_veneer>
10002a0e:	4630      	mov	r0, r6
10002a10:	b003      	add	sp, #12
10002a12:	bdf0      	pop	{r4, r5, r6, r7, pc}
10002a14:	000f4240 	.word	0x000f4240
10002a18:	200004dc 	.word	0x200004dc
10002a1c:	200007dc 	.word	0x200007dc
10002a20:	200007e0 	.word	0x200007e0

10002a24 <__wrap_puts>:
10002a24:	b538      	push	{r3, r4, r5, lr}
10002a26:	4604      	mov	r4, r0
10002a28:	f000 f9d4 	bl	10002dd4 <strlen>
10002a2c:	2301      	movs	r3, #1
10002a2e:	4605      	mov	r5, r0
10002a30:	461a      	mov	r2, r3
10002a32:	4620      	mov	r0, r4
10002a34:	4629      	mov	r1, r5
10002a36:	f7ff ff3d 	bl	100028b4 <stdio_put_string>
10002a3a:	4b08      	ldr	r3, [pc, #32]	@ (10002a5c <__wrap_puts+0x38>)
10002a3c:	681c      	ldr	r4, [r3, #0]
10002a3e:	b12c      	cbz	r4, 10002a4c <__wrap_puts+0x28>
10002a40:	6863      	ldr	r3, [r4, #4]
10002a42:	b12b      	cbz	r3, 10002a50 <__wrap_puts+0x2c>
10002a44:	4798      	blx	r3
10002a46:	6924      	ldr	r4, [r4, #16]
10002a48:	2c00      	cmp	r4, #0
10002a4a:	d1f9      	bne.n	10002a40 <__wrap_puts+0x1c>
10002a4c:	4628      	mov	r0, r5
10002a4e:	bd38      	pop	{r3, r4, r5, pc}
10002a50:	6924      	ldr	r4, [r4, #16]
10002a52:	2c00      	cmp	r4, #0
10002a54:	d1f4      	bne.n	10002a40 <__wrap_puts+0x1c>
10002a56:	4628      	mov	r0, r5
10002a58:	bd38      	pop	{r3, r4, r5, pc}
10002a5a:	bf00      	nop
10002a5c:	200007dc 	.word	0x200007dc

10002a60 <multicore_reset_core1>:
10002a60:	f04f 7180 	mov.w	r1, #16777216	@ 0x1000000
10002a64:	4b14      	ldr	r3, [pc, #80]	@ (10002ab8 <multicore_reset_core1+0x58>)
10002a66:	4a15      	ldr	r2, [pc, #84]	@ (10002abc <multicore_reset_core1+0x5c>)
10002a68:	b510      	push	{r4, lr}
10002a6a:	6059      	str	r1, [r3, #4]
10002a6c:	6853      	ldr	r3, [r2, #4]
10002a6e:	01d8      	lsls	r0, r3, #7
10002a70:	d5fc      	bpl.n	10002a6c <multicore_reset_core1+0xc>
10002a72:	2019      	movs	r0, #25
10002a74:	f7fe fdf8 	bl	10001668 <irq_is_enabled>
10002a78:	2100      	movs	r1, #0
10002a7a:	4604      	mov	r4, r0
10002a7c:	2019      	movs	r0, #25
10002a7e:	f7fe fddd 	bl	1000163c <irq_set_enabled>
10002a82:	f04f 7180 	mov.w	r1, #16777216	@ 0x1000000
10002a86:	f04f 0c00 	mov.w	ip, #0
10002a8a:	f04f 4250 	mov.w	r2, #3489660928	@ 0xd0000000
10002a8e:	4b0c      	ldr	r3, [pc, #48]	@ (10002ac0 <multicore_reset_core1+0x60>)
10002a90:	480c      	ldr	r0, [pc, #48]	@ (10002ac4 <multicore_reset_core1+0x64>)
10002a92:	f880 c001 	strb.w	ip, [r0, #1]
10002a96:	6059      	str	r1, [r3, #4]
10002a98:	6d13      	ldr	r3, [r2, #80]	@ 0x50
10002a9a:	07d9      	lsls	r1, r3, #31
10002a9c:	d403      	bmi.n	10002aa6 <multicore_reset_core1+0x46>
10002a9e:	bf20      	wfe
10002aa0:	6d13      	ldr	r3, [r2, #80]	@ 0x50
10002aa2:	07db      	lsls	r3, r3, #31
10002aa4:	d5fb      	bpl.n	10002a9e <multicore_reset_core1+0x3e>
10002aa6:	f04f 4350 	mov.w	r3, #3489660928	@ 0xd0000000
10002aaa:	4621      	mov	r1, r4
10002aac:	e8bd 4010 	ldmia.w	sp!, {r4, lr}
10002ab0:	2019      	movs	r0, #25
10002ab2:	6d9b      	ldr	r3, [r3, #88]	@ 0x58
10002ab4:	f7fe bdc2 	b.w	1000163c <irq_set_enabled>
10002ab8:	4001a000 	.word	0x4001a000
10002abc:	40018000 	.word	0x40018000
10002ac0:	4001b000 	.word	0x4001b000
10002ac4:	200007ec 	.word	0x200007ec

10002ac8 <adc_init>:
10002ac8:	2301      	movs	r3, #1
10002aca:	4807      	ldr	r0, [pc, #28]	@ (10002ae8 <adc_init+0x20>)
10002acc:	4907      	ldr	r1, [pc, #28]	@ (10002aec <adc_init+0x24>)
10002ace:	4a08      	ldr	r2, [pc, #32]	@ (10002af0 <adc_init+0x28>)
10002ad0:	6003      	str	r3, [r0, #0]
10002ad2:	600b      	str	r3, [r1, #0]
10002ad4:	6893      	ldr	r3, [r2, #8]
10002ad6:	07d9      	lsls	r1, r3, #31
10002ad8:	d5fc      	bpl.n	10002ad4 <adc_init+0xc>
10002ada:	2301      	movs	r3, #1
10002adc:	4a05      	ldr	r2, [pc, #20]	@ (10002af4 <adc_init+0x2c>)
10002ade:	6013      	str	r3, [r2, #0]
10002ae0:	6813      	ldr	r3, [r2, #0]
10002ae2:	05db      	lsls	r3, r3, #23
10002ae4:	d5fc      	bpl.n	10002ae0 <adc_init+0x18>
10002ae6:	4770      	bx	lr
10002ae8:	40022000 	.word	0x40022000
10002aec:	40023000 	.word	0x40023000
10002af0:	40020000 	.word	0x40020000
10002af4:	400a0000 	.word	0x400a0000

10002af8 <pio_add_program>:
10002af8:	e92d 4ff8 	stmdb	sp!, {r3, r4, r5, r6, r7, r8, r9, sl, fp, lr}
10002afc:	460d      	mov	r5, r1
10002afe:	4606      	mov	r6, r0
10002b00:	f7fe fd14 	bl	1000152c <hw_claim_lock>
10002b04:	2301      	movs	r3, #1
10002b06:	f895 8004 	ldrb.w	r8, [r5, #4]
10002b0a:	f995 c005 	ldrsb.w	ip, [r5, #5]
10002b0e:	f106 4e2f 	add.w	lr, r6, #2936012800	@ 0xaf000000
10002b12:	4f3d      	ldr	r7, [pc, #244]	@ (10002c08 <pio_add_program+0x110>)
10002b14:	f50e 0e60 	add.w	lr, lr, #14680064	@ 0xe00000
10002b18:	fa03 f308 	lsl.w	r3, r3, r8
10002b1c:	ea4f 5e1e 	mov.w	lr, lr, lsr #20
10002b20:	f1bc 0f00 	cmp.w	ip, #0
10002b24:	f857 102e 	ldr.w	r1, [r7, lr, lsl #2]
10002b28:	f103 33ff 	add.w	r3, r3, #4294967295	@ 0xffffffff
10002b2c:	f1c8 0420 	rsb	r4, r8, #32
10002b30:	db3c      	blt.n	10002bac <pio_add_program+0xb4>
10002b32:	45a4      	cmp	ip, r4
10002b34:	dc03      	bgt.n	10002b3e <pio_add_program+0x46>
10002b36:	fa03 f20c 	lsl.w	r2, r3, ip
10002b3a:	420a      	tst	r2, r1
10002b3c:	d006      	beq.n	10002b4c <pio_add_program+0x54>
10002b3e:	f04f 34ff 	mov.w	r4, #4294967295	@ 0xffffffff
10002b42:	f7fe fd05 	bl	10001550 <hw_claim_unlock>
10002b46:	4620      	mov	r0, r4
10002b48:	e8bd 8ff8 	ldmia.w	sp!, {r3, r4, r5, r6, r7, r8, r9, sl, fp, pc}
10002b4c:	f8d6 2168 	ldr.w	r2, [r6, #360]	@ 0x168
10002b50:	79ec      	ldrb	r4, [r5, #7]
10002b52:	2a00      	cmp	r2, #0
10002b54:	d14a      	bne.n	10002bec <pio_add_program+0xf4>
10002b56:	0762      	lsls	r2, r4, #29
10002b58:	d43a      	bmi.n	10002bd0 <pio_add_program+0xd8>
10002b5a:	4664      	mov	r4, ip
10002b5c:	fa03 f30c 	lsl.w	r3, r3, ip
10002b60:	400b      	ands	r3, r1
10002b62:	d13c      	bne.n	10002bde <pio_add_program+0xe6>
10002b64:	f1b8 0f00 	cmp.w	r8, #0
10002b68:	d019      	beq.n	10002b9e <pio_add_program+0xa6>
10002b6a:	682a      	ldr	r2, [r5, #0]
10002b6c:	f1a2 0902 	sub.w	r9, r2, #2
10002b70:	f839 af02 	ldrh.w	sl, [r9, #2]!
10002b74:	eb0c 0803 	add.w	r8, ip, r3
10002b78:	f5ba 5f00 	cmp.w	sl, #8192	@ 0x2000
10002b7c:	f108 0812 	add.w	r8, r8, #18
10002b80:	eb0c 0b0a 	add.w	fp, ip, sl
10002b84:	d235      	bcs.n	10002bf2 <pio_add_program+0xfa>
10002b86:	f846 b028 	str.w	fp, [r6, r8, lsl #2]
10002b8a:	792a      	ldrb	r2, [r5, #4]
10002b8c:	3301      	adds	r3, #1
10002b8e:	429a      	cmp	r2, r3
10002b90:	d8ee      	bhi.n	10002b70 <pio_add_program+0x78>
10002b92:	2301      	movs	r3, #1
10002b94:	4093      	lsls	r3, r2
10002b96:	3b01      	subs	r3, #1
10002b98:	fa03 f30c 	lsl.w	r3, r3, ip
10002b9c:	4319      	orrs	r1, r3
10002b9e:	f847 102e 	str.w	r1, [r7, lr, lsl #2]
10002ba2:	f7fe fcd5 	bl	10001550 <hw_claim_unlock>
10002ba6:	4620      	mov	r0, r4
10002ba8:	e8bd 8ff8 	ldmia.w	sp!, {r3, r4, r5, r6, r7, r8, r9, sl, fp, pc}
10002bac:	2c00      	cmp	r4, #0
10002bae:	da02      	bge.n	10002bb6 <pio_add_program+0xbe>
10002bb0:	e015      	b.n	10002bde <pio_add_program+0xe6>
10002bb2:	3c01      	subs	r4, #1
10002bb4:	d313      	bcc.n	10002bde <pio_add_program+0xe6>
10002bb6:	fa03 f204 	lsl.w	r2, r3, r4
10002bba:	420a      	tst	r2, r1
10002bbc:	46a4      	mov	ip, r4
10002bbe:	d1f8      	bne.n	10002bb2 <pio_add_program+0xba>
10002bc0:	f8d6 9168 	ldr.w	r9, [r6, #360]	@ 0x168
10002bc4:	79ea      	ldrb	r2, [r5, #7]
10002bc6:	f1b9 0f00 	cmp.w	r9, #0
10002bca:	d119      	bne.n	10002c00 <pio_add_program+0x108>
10002bcc:	0752      	lsls	r2, r2, #29
10002bce:	d5c5      	bpl.n	10002b5c <pio_add_program+0x64>
10002bd0:	f06f 040a 	mvn.w	r4, #10
10002bd4:	f7fe fcbc 	bl	10001550 <hw_claim_unlock>
10002bd8:	4620      	mov	r0, r4
10002bda:	e8bd 8ff8 	ldmia.w	sp!, {r3, r4, r5, r6, r7, r8, r9, sl, fp, pc}
10002bde:	f06f 0408 	mvn.w	r4, #8
10002be2:	f7fe fcb5 	bl	10001550 <hw_claim_unlock>
10002be6:	4620      	mov	r0, r4
10002be8:	e8bd 8ff8 	ldmia.w	sp!, {r3, r4, r5, r6, r7, r8, r9, sl, fp, pc}
10002bec:	07e4      	lsls	r4, r4, #31
10002bee:	d5b4      	bpl.n	10002b5a <pio_add_program+0x62>
10002bf0:	e7ee      	b.n	10002bd0 <pio_add_program+0xd8>
10002bf2:	f846 a028 	str.w	sl, [r6, r8, lsl #2]
10002bf6:	792a      	ldrb	r2, [r5, #4]
10002bf8:	3301      	adds	r3, #1
10002bfa:	429a      	cmp	r2, r3
10002bfc:	d8b8      	bhi.n	10002b70 <pio_add_program+0x78>
10002bfe:	e7c8      	b.n	10002b92 <pio_add_program+0x9a>
10002c00:	07d2      	lsls	r2, r2, #31
10002c02:	d5ab      	bpl.n	10002b5c <pio_add_program+0x64>
10002c04:	e7e4      	b.n	10002bd0 <pio_add_program+0xd8>
10002c06:	bf00      	nop
10002c08:	200006a4 	.word	0x200006a4

10002c0c <pio_sm_set_consecutive_pindirs>:
10002c0c:	e92d 41f0 	stmdb	sp!, {r4, r5, r6, r7, r8, lr}
10002c10:	f8d0 4168 	ldr.w	r4, [r0, #360]	@ 0x168
10002c14:	f89d 6018 	ldrb.w	r6, [sp, #24]
10002c18:	1b12      	subs	r2, r2, r4
10002c1a:	2a1f      	cmp	r2, #31
10002c1c:	d838      	bhi.n	10002c90 <pio_sm_set_consecutive_pindirs+0x84>
10002c1e:	f24e 049f 	movw	r4, #57503	@ 0xe09f
10002c22:	f24e 0580 	movw	r5, #57472	@ 0xe080
10002c26:	f44f 3800 	mov.w	r8, #131072	@ 0x20000
10002c2a:	eb01 0c41 	add.w	ip, r1, r1, lsl #1
10002c2e:	2e00      	cmp	r6, #0
10002c30:	bf18      	it	ne
10002c32:	4625      	movne	r5, r4
10002c34:	eb00 04cc 	add.w	r4, r0, ip, lsl #3
10002c38:	f504 5443 	add.w	r4, r4, #12480	@ 0x30c0
10002c3c:	eb00 0ccc 	add.w	ip, r0, ip, lsl #3
10002c40:	2b05      	cmp	r3, #5
10002c42:	f8dc 70dc 	ldr.w	r7, [ip, #220]	@ 0xdc
10002c46:	ea4f 0e41 	mov.w	lr, r1, lsl #1
10002c4a:	f8dc 60cc 	ldr.w	r6, [ip, #204]	@ 0xcc
10002c4e:	f8c4 800c 	str.w	r8, [r4, #12]
10002c52:	d90c      	bls.n	10002c6e <pio_sm_set_consecutive_pindirs+0x62>
10002c54:	0154      	lsls	r4, r2, #5
10002c56:	3b05      	subs	r3, #5
10002c58:	f044 54a0 	orr.w	r4, r4, #335544320	@ 0x14000000
10002c5c:	3205      	adds	r2, #5
10002c5e:	2b05      	cmp	r3, #5
10002c60:	f8cc 40dc 	str.w	r4, [ip, #220]	@ 0xdc
10002c64:	f002 021f 	and.w	r2, r2, #31
10002c68:	f8cc 50d8 	str.w	r5, [ip, #216]	@ 0xd8
10002c6c:	d8f2      	bhi.n	10002c54 <pio_sm_set_consecutive_pindirs+0x48>
10002c6e:	4471      	add	r1, lr
10002c70:	eb00 01c1 	add.w	r1, r0, r1, lsl #3
10002c74:	2000      	movs	r0, #0
10002c76:	0152      	lsls	r2, r2, #5
10002c78:	ea42 6383 	orr.w	r3, r2, r3, lsl #26
10002c7c:	f8c1 30dc 	str.w	r3, [r1, #220]	@ 0xdc
10002c80:	f8c1 50d8 	str.w	r5, [r1, #216]	@ 0xd8
10002c84:	f8c1 70dc 	str.w	r7, [r1, #220]	@ 0xdc
10002c88:	f8c1 60cc 	str.w	r6, [r1, #204]	@ 0xcc
10002c8c:	e8bd 81f0 	ldmia.w	sp!, {r4, r5, r6, r7, r8, pc}
10002c90:	f06f 0004 	mvn.w	r0, #4
10002c94:	e7fa      	b.n	10002c8c <pio_sm_set_consecutive_pindirs+0x80>
10002c96:	bf00      	nop

10002c98 <pio_sm_init>:
10002c98:	b5f0      	push	{r4, r5, r6, r7, lr}
10002c9a:	2501      	movs	r5, #1
10002c9c:	6804      	ldr	r4, [r0, #0]
10002c9e:	408d      	lsls	r5, r1
10002ca0:	ea24 0405 	bic.w	r4, r4, r5
10002ca4:	6004      	str	r4, [r0, #0]
10002ca6:	b3b3      	cbz	r3, 10002d16 <pio_sm_init+0x7e>
10002ca8:	681c      	ldr	r4, [r3, #0]
10002caa:	eb01 0c41 	add.w	ip, r1, r1, lsl #1
10002cae:	eb00 0ccc 	add.w	ip, r0, ip, lsl #3
10002cb2:	f8cc 40c8 	str.w	r4, [ip, #200]	@ 0xc8
10002cb6:	689c      	ldr	r4, [r3, #8]
10002cb8:	f8cc 40d0 	str.w	r4, [ip, #208]	@ 0xd0
10002cbc:	685c      	ldr	r4, [r3, #4]
10002cbe:	f8cc 40cc 	str.w	r4, [ip, #204]	@ 0xcc
10002cc2:	68db      	ldr	r3, [r3, #12]
10002cc4:	f8cc 30dc 	str.w	r3, [ip, #220]	@ 0xdc
10002cc8:	ea4f 0c41 	mov.w	ip, r1, lsl #1
10002ccc:	eb0c 0301 	add.w	r3, ip, r1
10002cd0:	f04f 3501 	mov.w	r5, #16843009	@ 0x1010101
10002cd4:	eb00 0cc3 	add.w	ip, r0, r3, lsl #3
10002cd8:	f04f 4600 	mov.w	r6, #2147483648	@ 0x80000000
10002cdc:	eb00 0ec3 	add.w	lr, r0, r3, lsl #3
10002ce0:	2301      	movs	r3, #1
10002ce2:	f50e 5e86 	add.w	lr, lr, #4288	@ 0x10c0
10002ce6:	1d0c      	adds	r4, r1, #4
10002ce8:	f101 0708 	add.w	r7, r1, #8
10002cec:	408d      	lsls	r5, r1
10002cee:	f8ce 6010 	str.w	r6, [lr, #16]
10002cf2:	fa03 f404 	lsl.w	r4, r3, r4
10002cf6:	f8ce 6010 	str.w	r6, [lr, #16]
10002cfa:	f002 021f 	and.w	r2, r2, #31
10002cfe:	6085      	str	r5, [r0, #8]
10002d00:	40bb      	lsls	r3, r7
10002d02:	f500 5000 	add.w	r0, r0, #8192	@ 0x2000
10002d06:	6004      	str	r4, [r0, #0]
10002d08:	f10e 0e10 	add.w	lr, lr, #16
10002d0c:	6003      	str	r3, [r0, #0]
10002d0e:	2000      	movs	r0, #0
10002d10:	f8cc 20d8 	str.w	r2, [ip, #216]	@ 0xd8
10002d14:	bdf0      	pop	{r4, r5, r6, r7, pc}
10002d16:	f44f 3780 	mov.w	r7, #65536	@ 0x10000
10002d1a:	f44f 2640 	mov.w	r6, #786432	@ 0xc0000
10002d1e:	f44f 35f8 	mov.w	r5, #126976	@ 0x1f000
10002d22:	eb01 0441 	add.w	r4, r1, r1, lsl #1
10002d26:	eb00 04c4 	add.w	r4, r0, r4, lsl #3
10002d2a:	f8c4 70c8 	str.w	r7, [r4, #200]	@ 0xc8
10002d2e:	ea4f 0c41 	mov.w	ip, r1, lsl #1
10002d32:	f8c4 60d0 	str.w	r6, [r4, #208]	@ 0xd0
10002d36:	f8c4 50cc 	str.w	r5, [r4, #204]	@ 0xcc
10002d3a:	f8c4 30dc 	str.w	r3, [r4, #220]	@ 0xdc
10002d3e:	e7c5      	b.n	10002ccc <pio_sm_init+0x34>

10002d40 <memset>:
10002d40:	b5f0      	push	{r4, r5, r6, r7, lr}
10002d42:	0783      	lsls	r3, r0, #30
10002d44:	d041      	beq.n	10002dca <memset+0x8a>
10002d46:	0005      	movs	r5, r0
10002d48:	0004      	movs	r4, r0
10002d4a:	2703      	movs	r7, #3
10002d4c:	1886      	adds	r6, r0, r2
10002d4e:	e004      	b.n	10002d5a <memset+0x1a>
10002d50:	7029      	strb	r1, [r5, #0]
10002d52:	3501      	adds	r5, #1
10002d54:	423b      	tst	r3, r7
10002d56:	d004      	beq.n	10002d62 <memset+0x22>
10002d58:	001c      	movs	r4, r3
10002d5a:	1c63      	adds	r3, r4, #1
10002d5c:	42b4      	cmp	r4, r6
10002d5e:	d1f7      	bne.n	10002d50 <memset+0x10>
10002d60:	bdf0      	pop	{r4, r5, r6, r7, pc}
10002d62:	3a01      	subs	r2, #1
10002d64:	1882      	adds	r2, r0, r2
10002d66:	1b12      	subs	r2, r2, r4
10002d68:	2a03      	cmp	r2, #3
10002d6a:	d925      	bls.n	10002db8 <memset+0x78>
10002d6c:	24ff      	movs	r4, #255	@ 0xff
10002d6e:	400c      	ands	r4, r1
10002d70:	0225      	lsls	r5, r4, #8
10002d72:	192d      	adds	r5, r5, r4
10002d74:	042c      	lsls	r4, r5, #16
10002d76:	192d      	adds	r5, r5, r4
10002d78:	2a0f      	cmp	r2, #15
10002d7a:	d928      	bls.n	10002dce <memset+0x8e>
10002d7c:	001c      	movs	r4, r3
10002d7e:	0013      	movs	r3, r2
10002d80:	0026      	movs	r6, r4
10002d82:	3b10      	subs	r3, #16
10002d84:	091b      	lsrs	r3, r3, #4
10002d86:	011b      	lsls	r3, r3, #4
10002d88:	3610      	adds	r6, #16
10002d8a:	199b      	adds	r3, r3, r6
10002d8c:	6025      	str	r5, [r4, #0]
10002d8e:	6065      	str	r5, [r4, #4]
10002d90:	60a5      	str	r5, [r4, #8]
10002d92:	60e5      	str	r5, [r4, #12]
10002d94:	3410      	adds	r4, #16
10002d96:	42a3      	cmp	r3, r4
10002d98:	d1f8      	bne.n	10002d8c <memset+0x4c>
10002d9a:	240f      	movs	r4, #15
10002d9c:	260c      	movs	r6, #12
10002d9e:	4014      	ands	r4, r2
10002da0:	4016      	ands	r6, r2
10002da2:	0022      	movs	r2, r4
10002da4:	2e00      	cmp	r6, #0
10002da6:	d007      	beq.n	10002db8 <memset+0x78>
10002da8:	08a2      	lsrs	r2, r4, #2
10002daa:	0092      	lsls	r2, r2, #2
10002dac:	18d2      	adds	r2, r2, r3
10002dae:	c320      	stmia	r3!, {r5}
10002db0:	4293      	cmp	r3, r2
10002db2:	d1fc      	bne.n	10002dae <memset+0x6e>
10002db4:	2203      	movs	r2, #3
10002db6:	4022      	ands	r2, r4
10002db8:	2a00      	cmp	r2, #0
10002dba:	d0d1      	beq.n	10002d60 <memset+0x20>
10002dbc:	b2c9      	uxtb	r1, r1
10002dbe:	189a      	adds	r2, r3, r2
10002dc0:	7019      	strb	r1, [r3, #0]
10002dc2:	3301      	adds	r3, #1
10002dc4:	429a      	cmp	r2, r3
10002dc6:	d1fb      	bne.n	10002dc0 <memset+0x80>
10002dc8:	e7ca      	b.n	10002d60 <memset+0x20>
10002dca:	0003      	movs	r3, r0
10002dcc:	e7cc      	b.n	10002d68 <memset+0x28>
10002dce:	0014      	movs	r4, r2
10002dd0:	e7ea      	b.n	10002da8 <memset+0x68>
10002dd2:	46c0      	nop			@ (mov r8, r8)

10002dd4 <strlen>:
10002dd4:	b510      	push	{r4, lr}
10002dd6:	0783      	lsls	r3, r0, #30
10002dd8:	d00a      	beq.n	10002df0 <strlen+0x1c>
10002dda:	0003      	movs	r3, r0
10002ddc:	2103      	movs	r1, #3
10002dde:	e002      	b.n	10002de6 <strlen+0x12>
10002de0:	3301      	adds	r3, #1
10002de2:	420b      	tst	r3, r1
10002de4:	d005      	beq.n	10002df2 <strlen+0x1e>
10002de6:	781a      	ldrb	r2, [r3, #0]
10002de8:	2a00      	cmp	r2, #0
10002dea:	d1f9      	bne.n	10002de0 <strlen+0xc>
10002dec:	1a18      	subs	r0, r3, r0
10002dee:	bd10      	pop	{r4, pc}
10002df0:	0003      	movs	r3, r0
10002df2:	6819      	ldr	r1, [r3, #0]
10002df4:	4a0c      	ldr	r2, [pc, #48]	@ (10002e28 <strlen+0x54>)
10002df6:	4c0d      	ldr	r4, [pc, #52]	@ (10002e2c <strlen+0x58>)
10002df8:	188a      	adds	r2, r1, r2
10002dfa:	438a      	bics	r2, r1
10002dfc:	4222      	tst	r2, r4
10002dfe:	d10f      	bne.n	10002e20 <strlen+0x4c>
10002e00:	6859      	ldr	r1, [r3, #4]
10002e02:	4a09      	ldr	r2, [pc, #36]	@ (10002e28 <strlen+0x54>)
10002e04:	3304      	adds	r3, #4
10002e06:	188a      	adds	r2, r1, r2
10002e08:	438a      	bics	r2, r1
10002e0a:	4222      	tst	r2, r4
10002e0c:	d108      	bne.n	10002e20 <strlen+0x4c>
10002e0e:	6859      	ldr	r1, [r3, #4]
10002e10:	4a05      	ldr	r2, [pc, #20]	@ (10002e28 <strlen+0x54>)
10002e12:	3304      	adds	r3, #4
10002e14:	188a      	adds	r2, r1, r2
10002e16:	438a      	bics	r2, r1
10002e18:	4222      	tst	r2, r4
10002e1a:	d0f1      	beq.n	10002e00 <strlen+0x2c>
10002e1c:	e000      	b.n	10002e20 <strlen+0x4c>
10002e1e:	3301      	adds	r3, #1
10002e20:	781a      	ldrb	r2, [r3, #0]
10002e22:	2a00      	cmp	r2, #0
10002e24:	d1fb      	bne.n	10002e1e <strlen+0x4a>
10002e26:	e7e1      	b.n	10002dec <strlen+0x18>
10002e28:	fefefeff 	.word	0xfefefeff
10002e2c:	80808080 	.word	0x80808080

10002e30 <memcpy>:
10002e30:	b5f0      	push	{r4, r5, r6, r7, lr}
10002e32:	46ce      	mov	lr, r9
10002e34:	4647      	mov	r7, r8
10002e36:	b580      	push	{r7, lr}
10002e38:	2a0f      	cmp	r2, #15
10002e3a:	d80e      	bhi.n	10002e5a <memcpy+0x2a>
10002e3c:	0005      	movs	r5, r0
10002e3e:	1e56      	subs	r6, r2, #1
10002e40:	2a00      	cmp	r2, #0
10002e42:	d006      	beq.n	10002e52 <memcpy+0x22>
10002e44:	2300      	movs	r3, #0
10002e46:	5ccc      	ldrb	r4, [r1, r3]
10002e48:	001a      	movs	r2, r3
10002e4a:	54ec      	strb	r4, [r5, r3]
10002e4c:	3301      	adds	r3, #1
10002e4e:	4296      	cmp	r6, r2
10002e50:	d1f9      	bne.n	10002e46 <memcpy+0x16>
10002e52:	bcc0      	pop	{r6, r7}
10002e54:	46b9      	mov	r9, r7
10002e56:	46b0      	mov	r8, r6
10002e58:	bdf0      	pop	{r4, r5, r6, r7, pc}
10002e5a:	0003      	movs	r3, r0
10002e5c:	430b      	orrs	r3, r1
10002e5e:	4688      	mov	r8, r1
10002e60:	079b      	lsls	r3, r3, #30
10002e62:	d134      	bne.n	10002ece <memcpy+0x9e>
10002e64:	2610      	movs	r6, #16
10002e66:	0017      	movs	r7, r2
10002e68:	46b1      	mov	r9, r6
10002e6a:	000c      	movs	r4, r1
10002e6c:	0003      	movs	r3, r0
10002e6e:	3f10      	subs	r7, #16
10002e70:	093f      	lsrs	r7, r7, #4
10002e72:	013f      	lsls	r7, r7, #4
10002e74:	19c5      	adds	r5, r0, r7
10002e76:	44a9      	add	r9, r5
10002e78:	6866      	ldr	r6, [r4, #4]
10002e7a:	605e      	str	r6, [r3, #4]
10002e7c:	68a6      	ldr	r6, [r4, #8]
10002e7e:	609e      	str	r6, [r3, #8]
10002e80:	68e6      	ldr	r6, [r4, #12]
10002e82:	60de      	str	r6, [r3, #12]
10002e84:	6826      	ldr	r6, [r4, #0]
10002e86:	3410      	adds	r4, #16
10002e88:	601e      	str	r6, [r3, #0]
10002e8a:	001e      	movs	r6, r3
10002e8c:	3310      	adds	r3, #16
10002e8e:	42ae      	cmp	r6, r5
10002e90:	d1f2      	bne.n	10002e78 <memcpy+0x48>
10002e92:	19cf      	adds	r7, r1, r7
10002e94:	0039      	movs	r1, r7
10002e96:	230f      	movs	r3, #15
10002e98:	260c      	movs	r6, #12
10002e9a:	3110      	adds	r1, #16
10002e9c:	468c      	mov	ip, r1
10002e9e:	4013      	ands	r3, r2
10002ea0:	4216      	tst	r6, r2
10002ea2:	d017      	beq.n	10002ed4 <memcpy+0xa4>
10002ea4:	4644      	mov	r4, r8
10002ea6:	3b04      	subs	r3, #4
10002ea8:	089b      	lsrs	r3, r3, #2
10002eaa:	009b      	lsls	r3, r3, #2
10002eac:	18ff      	adds	r7, r7, r3
10002eae:	3714      	adds	r7, #20
10002eb0:	1b06      	subs	r6, r0, r4
10002eb2:	680c      	ldr	r4, [r1, #0]
10002eb4:	198d      	adds	r5, r1, r6
10002eb6:	3104      	adds	r1, #4
10002eb8:	602c      	str	r4, [r5, #0]
10002eba:	42b9      	cmp	r1, r7
10002ebc:	d1f9      	bne.n	10002eb2 <memcpy+0x82>
10002ebe:	4661      	mov	r1, ip
10002ec0:	3304      	adds	r3, #4
10002ec2:	1859      	adds	r1, r3, r1
10002ec4:	444b      	add	r3, r9
10002ec6:	001d      	movs	r5, r3
10002ec8:	2303      	movs	r3, #3
10002eca:	401a      	ands	r2, r3
10002ecc:	e7b7      	b.n	10002e3e <memcpy+0xe>
10002ece:	0005      	movs	r5, r0
10002ed0:	1e56      	subs	r6, r2, #1
10002ed2:	e7b7      	b.n	10002e44 <memcpy+0x14>
10002ed4:	464d      	mov	r5, r9
10002ed6:	001a      	movs	r2, r3
10002ed8:	e7b1      	b.n	10002e3e <memcpy+0xe>
10002eda:	46c0      	nop			@ (mov r8, r8)

10002edc <_fini>:
10002edc:	b5f8      	push	{r3, r4, r5, r6, r7, lr}
10002ede:	46c0      	nop			@ (mov r8, r8)

10002ee0 <__flash_range_program_veneer>:
10002ee0:	f85f f000 	ldr.w	pc, [pc]	@ 10002ee4 <__flash_range_program_veneer+0x4>
10002ee4:	200003cd 	.word	0x200003cd

10002ee8 <__mutex_exit_veneer>:
10002ee8:	f85f f000 	ldr.w	pc, [pc]	@ 10002eec <__mutex_exit_veneer+0x4>
10002eec:	200001e5 	.word	0x200001e5

10002ef0 <__flash_range_erase_veneer>:
10002ef0:	f85f f000 	ldr.w	pc, [pc]	@ 10002ef4 <__flash_range_erase_veneer+0x4>
10002ef4:	20000321 	.word	0x20000321

10002ef8 <__mutex_try_enter_block_until_veneer>:
10002ef8:	f85f f000 	ldr.w	pc, [pc]	@ 10002efc <__mutex_try_enter_block_until_veneer+0x4>
10002efc:	2000017d 	.word	0x2000017d

10002f00 <__pre_init_runtime_init_bootrom_reset>:
10002f00:	10002625                                %&..

10002f04 <__pre_init_runtime_init_early_resets>:
10002f04:	10002599                                .%..

10002f08 <__pre_init_runtime_init_usb_power_down>:
10002f08:	100025cd                                .%..

10002f0c <__pre_init_runtime_init_clocks>:
10002f0c:	100026b9                                .&..

10002f10 <__pre_init_runtime_init_post_clock_resets>:
10002f10:	10002605                                .&..

10002f14 <__pre_init_runtime_init_boot_locks_reset>:
10002f14:	1000251d                                .%..

10002f18 <__pre_init_runtime_init_spin_locks_reset>:
10002f18:	1000264d                                M&..

10002f1c <__pre_init_runtime_init_bootrom_locking_enable>:
10002f1c:	10002509                                .%..

10002f20 <__pre_init_runtime_init_mutex>:
10002f20:	100016f5                                ....

10002f24 <__pre_init_runtime_init_install_ram_vector_table>:
10002f24:	10002651                                Q&..

10002f28 <__pre_init_runtime_init_default_alarm_pool>:
10002f28:	10001a7d                                }...

10002f2c <__pre_init_first_per_core_initializer>:
10002f2c:	10002569                                i%..

10002f30 <__pre_init_runtime_init_per_core_bootrom_reset>:
10002f30:	10002639                                9&..

10002f34 <__pre_init_runtime_init_per_core_enable_coprocessors>:
10002f34:	100025e9                                .%..

10002f38 <__pre_init_spinlock_set_extexclall>:
10002f38:	100015d5                                ....

10002f3c <__pre_init_runtime_init_per_core_irq_priorities>:
10002f3c:	100015fd                                ....

10002f40 <__frame_dummy_init_array_entry>:
10002f40:	1000025d                                ]...

Disassembly of section .data:

20000110 <mutex_enter_block_until>:
20000110:	f04f 4150 	mov.w	r1, #3489660928	@ 0xd0000000
20000114:	e92d 41f0 	stmdb	sp!, {r4, r5, r6, r7, r8, lr}
20000118:	2700      	movs	r7, #0
2000011a:	4604      	mov	r4, r0
2000011c:	4616      	mov	r6, r2
2000011e:	461d      	mov	r5, r3
20000120:	f8d1 8000 	ldr.w	r8, [r1]
20000124:	e008      	b.n	20000138 <mutex_enter_block_until+0x28>
20000126:	e8c1 7f8f 	stlb	r7, [r1]
2000012a:	f38c 8810 	msr	PRIMASK, ip
2000012e:	4630      	mov	r0, r6
20000130:	4629      	mov	r1, r5
20000132:	f000 f9b9 	bl	200004a8 <__best_effort_wfe_or_timeout_veneer>
20000136:	b9e8      	cbnz	r0, 20000174 <mutex_enter_block_until+0x64>
20000138:	6821      	ldr	r1, [r4, #0]
2000013a:	f3ef 8c10 	mrs	ip, PRIMASK
2000013e:	b672      	cpsid	i
20000140:	e8d1 2fcf 	ldaexb	r2, [r1]
20000144:	2301      	movs	r3, #1
20000146:	2a00      	cmp	r2, #0
20000148:	d1fa      	bne.n	20000140 <mutex_enter_block_until+0x30>
2000014a:	e8c1 3f42 	strexb	r2, r3, [r1]
2000014e:	2a00      	cmp	r2, #0
20000150:	d1f6      	bne.n	20000140 <mutex_enter_block_until+0x30>
20000152:	f3bf 8f5f 	dmb	sy
20000156:	f994 3004 	ldrsb.w	r3, [r4, #4]
2000015a:	6821      	ldr	r1, [r4, #0]
2000015c:	2b00      	cmp	r3, #0
2000015e:	dae2      	bge.n	20000126 <mutex_enter_block_until+0x16>
20000160:	2300      	movs	r3, #0
20000162:	f884 8004 	strb.w	r8, [r4, #4]
20000166:	e8c1 3f8f 	stlb	r3, [r1]
2000016a:	f38c 8810 	msr	PRIMASK, ip
2000016e:	2001      	movs	r0, #1
20000170:	e8bd 81f0 	ldmia.w	sp!, {r4, r5, r6, r7, r8, pc}
20000174:	2000      	movs	r0, #0
20000176:	e8bd 81f0 	ldmia.w	sp!, {r4, r5, r6, r7, r8, pc}
2000017a:	bf00      	nop

2000017c <mutex_try_enter_block_until>:
2000017c:	b530      	push	{r4, r5, lr}
2000017e:	6804      	ldr	r4, [r0, #0]
20000180:	f3ef 8c10 	mrs	ip, PRIMASK
20000184:	b672      	cpsid	i
20000186:	e8d4 efcf 	ldaexb	lr, [r4]
2000018a:	2501      	movs	r5, #1
2000018c:	f1be 0f00 	cmp.w	lr, #0
20000190:	d1f9      	bne.n	20000186 <mutex_try_enter_block_until+0xa>
20000192:	e8c4 5f4e 	strexb	lr, r5, [r4]
20000196:	f1be 0f00 	cmp.w	lr, #0
2000019a:	d1f4      	bne.n	20000186 <mutex_try_enter_block_until+0xa>
2000019c:	f3bf 8f5f 	dmb	sy
200001a0:	f990 4004 	ldrsb.w	r4, [r0, #4]
200001a4:	6805      	ldr	r5, [r0, #0]
200001a6:	2c00      	cmp	r4, #0
200001a8:	db10      	blt.n	200001cc <mutex_try_enter_block_until+0x50>
200001aa:	2100      	movs	r1, #0
200001ac:	e8c5 1f8f 	stlb	r1, [r5]
200001b0:	f38c 8810 	msr	PRIMASK, ip
200001b4:	f04f 4550 	mov.w	r5, #3489660928	@ 0xd0000000
200001b8:	f995 5000 	ldrsb.w	r5, [r5]
200001bc:	42a5      	cmp	r5, r4
200001be:	d101      	bne.n	200001c4 <mutex_try_enter_block_until+0x48>
200001c0:	4608      	mov	r0, r1
200001c2:	bd30      	pop	{r4, r5, pc}
200001c4:	e8bd 4030 	ldmia.w	sp!, {r4, r5, lr}
200001c8:	f7ff bfa2 	b.w	20000110 <mutex_enter_block_until>
200001cc:	f04f 4250 	mov.w	r2, #3489660928	@ 0xd0000000
200001d0:	6812      	ldr	r2, [r2, #0]
200001d2:	2300      	movs	r3, #0
200001d4:	7102      	strb	r2, [r0, #4]
200001d6:	e8c5 3f8f 	stlb	r3, [r5]
200001da:	f38c 8810 	msr	PRIMASK, ip
200001de:	2001      	movs	r0, #1
200001e0:	bd30      	pop	{r4, r5, pc}
200001e2:	bf00      	nop

200001e4 <mutex_exit>:
200001e4:	6803      	ldr	r3, [r0, #0]
200001e6:	f3ef 8210 	mrs	r2, PRIMASK
200001ea:	b672      	cpsid	i
200001ec:	e8d3 cfcf 	ldaexb	ip, [r3]
200001f0:	2101      	movs	r1, #1
200001f2:	f1bc 0f00 	cmp.w	ip, #0
200001f6:	d1f9      	bne.n	200001ec <mutex_exit+0x8>
200001f8:	e8c3 1f4c 	strexb	ip, r1, [r3]
200001fc:	f1bc 0f00 	cmp.w	ip, #0
20000200:	d1f4      	bne.n	200001ec <mutex_exit+0x8>
20000202:	f3bf 8f5f 	dmb	sy
20000206:	f04f 0cff 	mov.w	ip, #255	@ 0xff
2000020a:	2300      	movs	r3, #0
2000020c:	6801      	ldr	r1, [r0, #0]
2000020e:	f880 c004 	strb.w	ip, [r0, #4]
20000212:	e8c1 3f8f 	stlb	r3, [r1]
20000216:	f382 8810 	msr	PRIMASK, r2
2000021a:	bf40      	sev
2000021c:	4770      	bx	lr
2000021e:	bf00      	nop

20000220 <flash_init_boot2_copyout>:
20000220:	b410      	push	{r4}
20000222:	4c0a      	ldr	r4, [pc, #40]	@ (2000024c <flash_init_boot2_copyout+0x2c>)
20000224:	7823      	ldrb	r3, [r4, #0]
20000226:	b96b      	cbnz	r3, 20000244 <flash_init_boot2_copyout+0x24>
20000228:	4b09      	ldr	r3, [pc, #36]	@ (20000250 <flash_init_boot2_copyout+0x30>)
2000022a:	f1c3 4180 	rsb	r1, r3, #1073741824	@ 0x40000000
2000022e:	f503 7080 	add.w	r0, r3, #256	@ 0x100
20000232:	f501 2160 	add.w	r1, r1, #917504	@ 0xe0000
20000236:	58ca      	ldr	r2, [r1, r3]
20000238:	f843 2f04 	str.w	r2, [r3, #4]!
2000023c:	4283      	cmp	r3, r0
2000023e:	d1fa      	bne.n	20000236 <flash_init_boot2_copyout+0x16>
20000240:	2301      	movs	r3, #1
20000242:	7023      	strb	r3, [r4, #0]
20000244:	f85d 4b04 	ldr.w	r4, [sp], #4
20000248:	4770      	bx	lr
2000024a:	bf00      	nop
2000024c:	20000814 	.word	0x20000814
20000250:	200006ac 	.word	0x200006ac

20000254 <flash_enable_xip_via_boot2>:
20000254:	4b00      	ldr	r3, [pc, #0]	@ (20000258 <flash_enable_xip_via_boot2+0x4>)
20000256:	4718      	bx	r3
20000258:	200006b1 	.word	0x200006b1

2000025c <flash_rp2350_save_qmi_cs1>:
2000025c:	4b03      	ldr	r3, [pc, #12]	@ (2000026c <flash_rp2350_save_qmi_cs1+0x10>)
2000025e:	6a1a      	ldr	r2, [r3, #32]
20000260:	6002      	str	r2, [r0, #0]
20000262:	6a9a      	ldr	r2, [r3, #40]	@ 0x28
20000264:	6042      	str	r2, [r0, #4]
20000266:	6a5b      	ldr	r3, [r3, #36]	@ 0x24
20000268:	6083      	str	r3, [r0, #8]
2000026a:	4770      	bx	lr
2000026c:	400d0000 	.word	0x400d0000

20000270 <flash_devinfo_ptr>:
20000270:	b508      	push	{r3, lr}
20000272:	2300      	movs	r3, #0
20000274:	2140      	movs	r1, #64	@ 0x40
20000276:	8adb      	ldrh	r3, [r3, #22]
20000278:	f244 4046 	movw	r0, #17478	@ 0x4446
2000027c:	4798      	blx	r3
2000027e:	6800      	ldr	r0, [r0, #0]
20000280:	bd08      	pop	{r3, pc}
20000282:	bf00      	nop

20000284 <flash_save_hardware_state>:
20000284:	b510      	push	{r4, lr}
20000286:	4604      	mov	r4, r0
20000288:	f000 f906 	bl	20000498 <xip_cache_clean_all>
2000028c:	4b08      	ldr	r3, [pc, #32]	@ (200002b0 <flash_save_hardware_state+0x2c>)
2000028e:	4620      	mov	r0, r4
20000290:	685a      	ldr	r2, [r3, #4]
20000292:	60e2      	str	r2, [r4, #12]
20000294:	689a      	ldr	r2, [r3, #8]
20000296:	6122      	str	r2, [r4, #16]
20000298:	68da      	ldr	r2, [r3, #12]
2000029a:	6162      	str	r2, [r4, #20]
2000029c:	691a      	ldr	r2, [r3, #16]
2000029e:	61a2      	str	r2, [r4, #24]
200002a0:	695a      	ldr	r2, [r3, #20]
200002a2:	61e2      	str	r2, [r4, #28]
200002a4:	699b      	ldr	r3, [r3, #24]
200002a6:	6223      	str	r3, [r4, #32]
200002a8:	e8bd 4010 	ldmia.w	sp!, {r4, lr}
200002ac:	f7ff bfd6 	b.w	2000025c <flash_rp2350_save_qmi_cs1>
200002b0:	40040000 	.word	0x40040000

200002b4 <flash_devinfo_get_cs_size>:
200002b4:	b510      	push	{r4, lr}
200002b6:	4604      	mov	r4, r0
200002b8:	f7ff ffda 	bl	20000270 <flash_devinfo_ptr>
200002bc:	b11c      	cbz	r4, 200002c6 <flash_devinfo_get_cs_size+0x12>
200002be:	8800      	ldrh	r0, [r0, #0]
200002c0:	f3c0 3003 	ubfx	r0, r0, #12, #4
200002c4:	bd10      	pop	{r4, pc}
200002c6:	200a      	movs	r0, #10
200002c8:	bd10      	pop	{r4, pc}
200002ca:	bf00      	nop

200002cc <flash_rp2350_restore_qmi_cs1>:
200002cc:	b510      	push	{r4, lr}
200002ce:	4604      	mov	r4, r0
200002d0:	2001      	movs	r0, #1
200002d2:	f7ff ffef 	bl	200002b4 <flash_devinfo_get_cs_size>
200002d6:	b938      	cbnz	r0, 200002e8 <flash_rp2350_restore_qmi_cs1+0x1c>
200002d8:	6822      	ldr	r2, [r4, #0]
200002da:	4b07      	ldr	r3, [pc, #28]	@ (200002f8 <flash_rp2350_restore_qmi_cs1+0x2c>)
200002dc:	621a      	str	r2, [r3, #32]
200002de:	6862      	ldr	r2, [r4, #4]
200002e0:	629a      	str	r2, [r3, #40]	@ 0x28
200002e2:	68a2      	ldr	r2, [r4, #8]
200002e4:	625a      	str	r2, [r3, #36]	@ 0x24
200002e6:	bd10      	pop	{r4, pc}
200002e8:	f44f 5180 	mov.w	r1, #4096	@ 0x1000
200002ec:	f24a 0202 	movw	r2, #40962	@ 0xa002
200002f0:	4b01      	ldr	r3, [pc, #4]	@ (200002f8 <flash_rp2350_restore_qmi_cs1+0x2c>)
200002f2:	62d9      	str	r1, [r3, #44]	@ 0x2c
200002f4:	631a      	str	r2, [r3, #48]	@ 0x30
200002f6:	bd10      	pop	{r4, pc}
200002f8:	400d0000 	.word	0x400d0000

200002fc <flash_restore_hardware_state>:
200002fc:	68c1      	ldr	r1, [r0, #12]
200002fe:	4a07      	ldr	r2, [pc, #28]	@ (2000031c <flash_restore_hardware_state+0x20>)
20000300:	6051      	str	r1, [r2, #4]
20000302:	6901      	ldr	r1, [r0, #16]
20000304:	6091      	str	r1, [r2, #8]
20000306:	6941      	ldr	r1, [r0, #20]
20000308:	60d1      	str	r1, [r2, #12]
2000030a:	6981      	ldr	r1, [r0, #24]
2000030c:	6111      	str	r1, [r2, #16]
2000030e:	69c1      	ldr	r1, [r0, #28]
20000310:	6151      	str	r1, [r2, #20]
20000312:	6a03      	ldr	r3, [r0, #32]
20000314:	6193      	str	r3, [r2, #24]
20000316:	f7ff bfd9 	b.w	200002cc <flash_rp2350_restore_qmi_cs1>
2000031a:	bf00      	nop
2000031c:	40040000 	.word	0x40040000

20000320 <flash_range_erase>:
20000320:	e92d 43f0 	stmdb	sp!, {r4, r5, r6, r7, r8, r9, lr}
20000324:	1843      	adds	r3, r0, r1
20000326:	f5b3 0f80 	cmp.w	r3, #4194304	@ 0x400000
2000032a:	4604      	mov	r4, r0
2000032c:	460d      	mov	r5, r1
2000032e:	b08b      	sub	sp, #44	@ 0x2c
20000330:	d849      	bhi.n	200003c6 <flash_range_erase+0xa6>
20000332:	2300      	movs	r3, #0
20000334:	8adb      	ldrh	r3, [r3, #22]
20000336:	2200      	movs	r2, #0
20000338:	e842 f200 	tt	r2, r2
2000033c:	0256      	lsls	r6, r2, #9
2000033e:	bf54      	ite	pl
20000340:	2110      	movpl	r1, #16
20000342:	2104      	movmi	r1, #4
20000344:	f244 6049 	movw	r0, #17993	@ 0x4649
20000348:	4798      	blx	r3
2000034a:	2300      	movs	r3, #0
2000034c:	4681      	mov	r9, r0
2000034e:	8adb      	ldrh	r3, [r3, #22]
20000350:	2200      	movs	r2, #0
20000352:	e842 f200 	tt	r2, r2
20000356:	0250      	lsls	r0, r2, #9
20000358:	bf54      	ite	pl
2000035a:	2110      	movpl	r1, #16
2000035c:	2104      	movmi	r1, #4
2000035e:	f645 0045 	movw	r0, #22597	@ 0x5845
20000362:	4798      	blx	r3
20000364:	2300      	movs	r3, #0
20000366:	4680      	mov	r8, r0
20000368:	8adb      	ldrh	r3, [r3, #22]
2000036a:	2200      	movs	r2, #0
2000036c:	e842 f200 	tt	r2, r2
20000370:	0251      	lsls	r1, r2, #9
20000372:	bf54      	ite	pl
20000374:	2110      	movpl	r1, #16
20000376:	2104      	movmi	r1, #4
20000378:	f244 5052 	movw	r0, #17746	@ 0x4552
2000037c:	4798      	blx	r3
2000037e:	2300      	movs	r3, #0
20000380:	4607      	mov	r7, r0
20000382:	8adb      	ldrh	r3, [r3, #22]
20000384:	2200      	movs	r2, #0
20000386:	e842 f200 	tt	r2, r2
2000038a:	0252      	lsls	r2, r2, #9
2000038c:	bf54      	ite	pl
2000038e:	2110      	movpl	r1, #16
20000390:	2104      	movmi	r1, #4
20000392:	f244 3046 	movw	r0, #17222	@ 0x4346
20000396:	4798      	blx	r3
20000398:	4606      	mov	r6, r0
2000039a:	f7ff ff41 	bl	20000220 <flash_init_boot2_copyout>
2000039e:	a801      	add	r0, sp, #4
200003a0:	f7ff ff70 	bl	20000284 <flash_save_hardware_state>
200003a4:	47c8      	blx	r9
200003a6:	47c0      	blx	r8
200003a8:	23d8      	movs	r3, #216	@ 0xd8
200003aa:	f44f 3280 	mov.w	r2, #65536	@ 0x10000
200003ae:	4629      	mov	r1, r5
200003b0:	4620      	mov	r0, r4
200003b2:	47b8      	blx	r7
200003b4:	47b0      	blx	r6
200003b6:	f7ff ff4d 	bl	20000254 <flash_enable_xip_via_boot2>
200003ba:	a801      	add	r0, sp, #4
200003bc:	f7ff ff9e 	bl	200002fc <flash_restore_hardware_state>
200003c0:	b00b      	add	sp, #44	@ 0x2c
200003c2:	e8bd 83f0 	ldmia.w	sp!, {r4, r5, r6, r7, r8, r9, pc}
200003c6:	f000 f873 	bl	200004b0 <__hard_assertion_failure_veneer>
200003ca:	e7b2      	b.n	20000332 <flash_range_erase+0x12>

200003cc <flash_range_program>:
200003cc:	e92d 47f0 	stmdb	sp!, {r4, r5, r6, r7, r8, r9, sl, lr}
200003d0:	1883      	adds	r3, r0, r2
200003d2:	f5b3 0f80 	cmp.w	r3, #4194304	@ 0x400000
200003d6:	4604      	mov	r4, r0
200003d8:	4615      	mov	r5, r2
200003da:	4688      	mov	r8, r1
200003dc:	b08a      	sub	sp, #40	@ 0x28
200003de:	d847      	bhi.n	20000470 <flash_range_program+0xa4>
200003e0:	2300      	movs	r3, #0
200003e2:	8adb      	ldrh	r3, [r3, #22]
200003e4:	2200      	movs	r2, #0
200003e6:	e842 f200 	tt	r2, r2
200003ea:	0256      	lsls	r6, r2, #9
200003ec:	bf54      	ite	pl
200003ee:	2110      	movpl	r1, #16
200003f0:	2104      	movmi	r1, #4
200003f2:	f244 6049 	movw	r0, #17993	@ 0x4649
200003f6:	4798      	blx	r3
200003f8:	2300      	movs	r3, #0
200003fa:	4682      	mov	sl, r0
200003fc:	8adb      	ldrh	r3, [r3, #22]
200003fe:	2200      	movs	r2, #0
20000400:	e842 f200 	tt	r2, r2
20000404:	0250      	lsls	r0, r2, #9
20000406:	bf54      	ite	pl
20000408:	2110      	movpl	r1, #16
2000040a:	2104      	movmi	r1, #4
2000040c:	f645 0045 	movw	r0, #22597	@ 0x5845
20000410:	4798      	blx	r3
20000412:	2300      	movs	r3, #0
20000414:	4681      	mov	r9, r0
20000416:	8adb      	ldrh	r3, [r3, #22]
20000418:	2200      	movs	r2, #0
2000041a:	e842 f200 	tt	r2, r2
2000041e:	0251      	lsls	r1, r2, #9
20000420:	bf54      	ite	pl
20000422:	2110      	movpl	r1, #16
20000424:	2104      	movmi	r1, #4
20000426:	f245 0052 	movw	r0, #20562	@ 0x5052
2000042a:	4798      	blx	r3
2000042c:	2300      	movs	r3, #0
2000042e:	4607      	mov	r7, r0
20000430:	8adb      	ldrh	r3, [r3, #22]
20000432:	2200      	movs	r2, #0
20000434:	e842 f200 	tt	r2, r2
20000438:	0252      	lsls	r2, r2, #9
2000043a:	bf54      	ite	pl
2000043c:	2110      	movpl	r1, #16
2000043e:	2104      	movmi	r1, #4
20000440:	f244 3046 	movw	r0, #17222	@ 0x4346
20000444:	4798      	blx	r3
20000446:	4606      	mov	r6, r0
20000448:	f7ff feea 	bl	20000220 <flash_init_boot2_copyout>
2000044c:	a801      	add	r0, sp, #4
2000044e:	f7ff ff19 	bl	20000284 <flash_save_hardware_state>
20000452:	47d0      	blx	sl
20000454:	47c8      	blx	r9
20000456:	462a      	mov	r2, r5
20000458:	4641      	mov	r1, r8
2000045a:	4620      	mov	r0, r4
2000045c:	47b8      	blx	r7
2000045e:	47b0      	blx	r6
20000460:	f7ff fef8 	bl	20000254 <flash_enable_xip_via_boot2>
20000464:	a801      	add	r0, sp, #4
20000466:	f7ff ff49 	bl	200002fc <flash_restore_hardware_state>
2000046a:	b00a      	add	sp, #40	@ 0x28
2000046c:	e8bd 87f0 	ldmia.w	sp!, {r4, r5, r6, r7, r8, r9, sl, pc}
20000470:	f000 f81e 	bl	200004b0 <__hard_assertion_failure_veneer>
20000474:	e7b4      	b.n	200003e0 <flash_range_program+0x14>
20000476:	bf00      	nop

20000478 <xip_cache_maintain>:
20000478:	4401      	add	r1, r0
2000047a:	4288      	cmp	r0, r1
2000047c:	d206      	bcs.n	2000048c <xip_cache_maintain+0x14>
2000047e:	2300      	movs	r3, #0
20000480:	f102 52c0 	add.w	r2, r2, #402653184	@ 0x18000000
20000484:	5483      	strb	r3, [r0, r2]
20000486:	3008      	adds	r0, #8
20000488:	4281      	cmp	r1, r0
2000048a:	d8fb      	bhi.n	20000484 <xip_cache_maintain+0xc>
2000048c:	f3bf 8f4f 	dsb	sy
20000490:	f3bf 8f6f 	isb	sy
20000494:	4770      	bx	lr
20000496:	bf00      	nop

20000498 <xip_cache_clean_all>:
20000498:	2201      	movs	r2, #1
2000049a:	f44f 4180 	mov.w	r1, #16384	@ 0x4000
2000049e:	4801      	ldr	r0, [pc, #4]	@ (200004a4 <xip_cache_clean_all+0xc>)
200004a0:	f7ff bfea 	b.w	20000478 <xip_cache_maintain>
200004a4:	03ffc000 	.word	0x03ffc000

200004a8 <__best_effort_wfe_or_timeout_veneer>:
200004a8:	f85f f000 	ldr.w	pc, [pc]	@ 200004ac <__best_effort_wfe_or_timeout_veneer+0x4>
200004ac:	10001e79 	.word	0x10001e79

200004b0 <__hard_assertion_failure_veneer>:
200004b0:	f85f f000 	ldr.w	pc, [pc]	@ 200004b4 <__hard_assertion_failure_veneer+0x4>
200004b4:	1000256d 	.word	0x1000256d

200004b8 <striped_spin_lock_num>:
200004b8:	00000010                                ....

200004bc <default_alarm_pool>:
	...
200004d0:	200004e8                                ... 

200004d4 <malloc_mutex>:
	...

200004dc <print_mutex>:
	...
